

Microchip MPLAB XC8 Assembler V2.31 build 20201012212115 
                                                                                               Sat Nov 21 11:59:23 2020

Microchip MPLAB XC8 C Compiler v2.31 (Free license) build 20201012212115 Og1 
     1                           	processor	18F4520
     2                           	fnconf	rparam,??,?,0
     3                           	pagewidth 120
     4                           	opt	flic
     5                           	psect	idataCOMRAM,global,class=CODE,delta=1,noexec
     6                           	psect	cinit,global,reloc=2,class=CODE,delta=1
     7                           	psect	bssCOMRAM,global,class=COMRAM,space=1,delta=1,lowdata,noexec
     8                           	psect	dataCOMRAM,global,class=COMRAM,space=1,delta=1,lowdata,noexec
     9                           	psect	cstackCOMRAM,global,class=COMRAM,space=1,delta=1,lowdata,noexec
    10                           	psect	text0,global,reloc=2,class=CODE,delta=1
    11                           	psect	text1,global,reloc=2,class=CODE,delta=1
    12                           	psect	text2,global,reloc=2,class=CODE,delta=1
    13                           	psect	text3,global,reloc=2,class=CODE,delta=1
    14                           	psect	text4,global,reloc=2,class=CODE,delta=1
    15                           	psect	text5,global,reloc=2,class=CODE,delta=1
    16                           	psect	text6,global,reloc=2,class=CODE,delta=1
    17                           	psect	text7,global,reloc=2,class=CODE,delta=1
    18                           	psect	text8,global,reloc=2,class=CODE,delta=1
    19                           	psect	text9,global,reloc=2,class=CODE,delta=1
    20                           	psect	text10,global,reloc=2,class=CODE,delta=1
    21                           	psect	text11,global,reloc=2,class=CODE,delta=1
    22                           	psect	text12,global,reloc=2,class=CODE,delta=1
    23                           	psect	text13,global,reloc=2,class=CODE,delta=1
    24                           	psect	text14,global,reloc=2,class=CODE,delta=1
    25                           	psect	text15,global,reloc=2,class=CODE,delta=1
    26                           	psect	text16,global,reloc=2,class=CODE,delta=1
    27                           	psect	text17,global,reloc=2,class=CODE,delta=1
    28                           	psect	intsave_regs,global,class=BIGRAM,space=1,delta=1,noexec
    29                           	psect	rparam,global,class=COMRAM,space=1,delta=1,noexec
    30                           	psect	idloc,global,abs,ovrld,class=IDLOC,space=5,delta=1,noexec
    31                           	psect	config,global,abs,ovrld,class=CONFIG,space=4,delta=1,noexec
    32  0000                     
    33                           ; Version 2.20
    34                           ; Generated 12/02/2020 GMT
    35                           ; 
    36                           ; Copyright © 2020, Microchip Technology Inc. and its subsidiaries ("Microchip")
    37                           ; All rights reserved.
    38                           ; 
    39                           ; This software is developed by Microchip Technology Inc. and its subsidiaries ("Microch
      +                          ip").
    40                           ; 
    41                           ; Redistribution and use in source and binary forms, with or without modification, are
    42                           ; permitted provided that the following conditions are met:
    43                           ; 
    44                           ;     1. Redistributions of source code must retain the above copyright notice, this lis
      +                          t of
    45                           ;        conditions and the following disclaimer.
    46                           ; 
    47                           ;     2. Redistributions in binary form must reproduce the above copyright notice, this 
      +                          list
    48                           ;        of conditions and the following disclaimer in the documentation and/or other
    49                           ;        materials provided with the distribution.
    50                           ; 
    51                           ;     3. Microchip's name may not be used to endorse or promote products derived from th
      +                          is
    52                           ;        software without specific prior written permission.
    53                           ; 
    54                           ; THIS SOFTWARE IS PROVIDED BY MICROCHIP "AS IS" AND ANY EXPRESS OR IMPLIED WARRANTIES,
    55                           ; INCLUDING, BUT NOT LIMITED TO, THE IMPLIED WARRANTIES OF MERCHANTABILITY AND FITNESS F
      +                          OR
    56                           ; PURPOSE ARE DISCLAIMED.  IN NO EVENT SHALL MICROCHIP BE LIABLE FOR ANY DIRECT, INDIREC
      +                          T,
    57                           ; INCIDENTAL, SPECIAL, EXEMPLARY, OR CONSEQUENTIAL DAMAGES (INCLUDING BUT NOT LIMITED TO
    58                           ; PROCUREMENT OF SUBSTITUTE GOODS OR SERVICES; LOSS OF USE, DATA OR PROFITS; OR BUSINESS
    59                           ; INTERRUPTION) HOWSOEVER CAUSED AND ON ANY THEORY OF LIABILITY, WHETHER IN CONTRACT, ST
      +                          RICT
    60                           ; LIABILITY, OR TORT (INCLUDING NEGLIGENCE OR OTHERWISE) ARISING IN ANY WAY OUT OF THE U
      +                          SE OF
    61                           ; THIS SOFTWARE, EVEN IF ADVISED OF THE POSSIBILITY OF SUCH DAMAGE.
    62                           ; 
    63                           ; 
    64                           ; Code-generator required, PIC18F4520 Definitions
    65                           ; 
    66                           ; SFR Addresses
    67  0000                     
    68                           	psect	idataCOMRAM
    69  0077C8                     __pidataCOMRAM:
    70                           	callstack 0
    71                           
    72                           ;initializer for _duty
    73  0077C8  0064               	dw	100
    74  0000                     _EECON2	set	4007
    75  0000                     _EEDATA	set	4008
    76  0000                     _EECON1bits	set	4006
    77  0000                     _EEADR	set	4009
    78  0000                     _LATDbits	set	3980
    79  0000                     _LATE	set	3981
    80  0000                     _PORTE	set	3972
    81  0000                     _LATD	set	3980
    82  0000                     _PORTD	set	3971
    83  0000                     _LATC	set	3979
    84  0000                     _PORTC	set	3970
    85  0000                     _LATB	set	3978
    86  0000                     _PORTB	set	3969
    87  0000                     _LATA	set	3977
    88  0000                     _PORTA	set	3968
    89  0000                     _TRISE	set	3990
    90  0000                     _TRISD	set	3989
    91  0000                     _TRISC	set	3988
    92  0000                     _TRISB	set	3987
    93  0000                     _TRISA	set	3986
    94  0000                     _TMR1H	set	4047
    95  0000                     _TMR1L	set	4046
    96  0000                     _T1CON	set	4045
    97  0000                     _INTCON2bits	set	4081
    98  0000                     _ADCON1	set	4033
    99  0000                     _ADCON0	set	4034
   100  0000                     _PORTEbits	set	3972
   101  0000                     _PORTDbits	set	3971
   102  0000                     _TRISEbits	set	3990
   103  0000                     _TRISDbits	set	3989
   104  0000                     _PORTCbits	set	3970
   105  0000                     _TRISCbits	set	3988
   106                           
   107                           ; #config settings
   108                           
   109                           	psect	cinit
   110  00784E                     __pcinit:
   111                           	callstack 0
   112  00784E                     start_initialization:
   113                           	callstack 0
   114  00784E                     __initialization:
   115                           	callstack 0
   116                           
   117                           ; Initialize objects allocated to COMRAM (2 bytes)
   118                           ; load TBLPTR registers with __pidataCOMRAM
   119  00784E  0EC8               	movlw	low __pidataCOMRAM
   120  007850  6EF6               	movwf	tblptrl,c
   121  007852  0E77               	movlw	high __pidataCOMRAM
   122  007854  6EF7               	movwf	tblptrh,c
   123  007856  0E00               	movlw	low (__pidataCOMRAM shr (0+16))
   124  007858  6EF8               	movwf	tblptru,c
   125  00785A  0009               	tblrd		*+	;fetch initializer
   126  00785C  CFF5 F030          	movff	tablat,__pdataCOMRAM
   127  007860  0009               	tblrd		*+	;fetch initializer
   128  007862  CFF5 F031          	movff	tablat,__pdataCOMRAM+1
   129                           
   130                           ; Clear objects allocated to COMRAM (27 bytes)
   131  007866  EE00  F001         	lfsr	0,__pbssCOMRAM
   132  00786A  0E1B               	movlw	27
   133  00786C                     clear_0:
   134  00786C  6AEE               	clrf	postinc0,c
   135  00786E  06E8               	decf	wreg,f,c
   136  007870  E1FD               	bnz	clear_0
   137  007872                     end_of_initialization:
   138                           	callstack 0
   139  007872                     __end_of__initialization:
   140                           	callstack 0
   141  007872  0E00               	movlw	low (__Lmediumconst shr (0+16))
   142  007874  6EF8               	movwf	tblptru,c
   143  007876  0100               	movlb	0
   144  007878  EFD4  F03D         	goto	_main	;jump to C main() function
   145                           
   146                           	psect	bssCOMRAM
   147  000001                     __pbssCOMRAM:
   148                           	callstack 0
   149  000001                     _str:
   150                           	callstack 0
   151  000001                     	ds	5
   152  000006                     _count:
   153                           	callstack 0
   154  000006                     	ds	2
   155  000008                     _time:
   156                           	callstack 0
   157  000008                     	ds	10
   158  000012                     _date:
   159                           	callstack 0
   160  000012                     	ds	10
   161                           
   162                           	psect	dataCOMRAM
   163  000030                     __pdataCOMRAM:
   164                           	callstack 0
   165  000030                     _duty:
   166                           	callstack 0
   167  000030                     	ds	2
   168                           
   169                           	psect	cstackCOMRAM
   170  00001C                     __pcstackCOMRAM:
   171                           	callstack 0
   172  00001C                     ??_Lcd_Cmd:
   173  00001C                     ??_Lcd_Chr_CP:
   174  00001C                     ??_i2c_wb:
   175  00001C                     ??_i2c_rb:
   176  00001C                     getd@nn:
   177                           	callstack 0
   178  00001C                     getu@nn:
   179                           	callstack 0
   180  00001C                     e2prom_r@addr:
   181                           	callstack 0
   182  00001C                     e2prom_w@val:
   183                           	callstack 0
   184                           
   185                           ; 1 bytes @ 0x0
   186  00001C                     	ds	1
   187  00001D                     e2prom_w@addr:
   188                           	callstack 0
   189                           
   190                           ; 1 bytes @ 0x1
   191  00001D                     	ds	1
   192  00001E                     i2c_wb@val:
   193                           	callstack 0
   194  00001E                     i2c_rb@ack:
   195                           	callstack 0
   196  00001E                     Lcd_Chr_CP@data:
   197                           	callstack 0
   198  00001E                     Lcd_Cmd@data:
   199                           	callstack 0
   200                           
   201                           ; 1 bytes @ 0x2
   202  00001E                     	ds	1
   203  00001F                     ??_Lcd_Init:
   204  00001F                     i2c_wb@i:
   205                           	callstack 0
   206  00001F                     i2c_rb@ret:
   207                           	callstack 0
   208  00001F                     Lcd_Out@x:
   209                           	callstack 0
   210                           
   211                           ; 1 bytes @ 0x3
   212  00001F                     	ds	1
   213  000020                     i2c_rb@i:
   214                           	callstack 0
   215  000020                     Lcd_Init@data:
   216                           	callstack 0
   217  000020                     Lcd_Out@buffer:
   218                           	callstack 0
   219                           
   220                           ; 2 bytes @ 0x4
   221  000020                     	ds	1
   222  000021                     rtc_r@tmp:
   223                           	callstack 0
   224  000021                     e2pext_r@addr:
   225                           	callstack 0
   226                           
   227                           ; 2 bytes @ 0x5
   228  000021                     	ds	1
   229  000022                     Lcd_Out@y:
   230                           	callstack 0
   231                           
   232                           ; 1 bytes @ 0x6
   233  000022                     	ds	1
   234  000023                     Lcd_Out@data:
   235                           	callstack 0
   236  000023                     e2pext_r@ret:
   237                           	callstack 0
   238                           
   239                           ; 1 bytes @ 0x7
   240  000023                     	ds	1
   241  000024                     e2pext_r@al:
   242                           	callstack 0
   243                           
   244                           ; 1 bytes @ 0x8
   245  000024                     	ds	1
   246  000025                     e2pext_r@ah:
   247                           	callstack 0
   248                           
   249                           ; 1 bytes @ 0x9
   250  000025                     	ds	1
   251  000026                     e2pext_w@addr:
   252                           	callstack 0
   253                           
   254                           ; 2 bytes @ 0xA
   255  000026                     	ds	2
   256  000028                     e2pext_w@val:
   257                           	callstack 0
   258                           
   259                           ; 1 bytes @ 0xC
   260  000028                     	ds	1
   261  000029                     ??_e2pext_w:
   262                           
   263                           ; 1 bytes @ 0xD
   264  000029                     	ds	2
   265  00002B                     e2pext_w@ah:
   266                           	callstack 0
   267                           
   268                           ; 1 bytes @ 0xF
   269  00002B                     	ds	1
   270  00002C                     e2pext_w@al:
   271                           	callstack 0
   272                           
   273                           ; 1 bytes @ 0x10
   274  00002C                     	ds	1
   275  00002D                     e2pext_w@nt:
   276                           	callstack 0
   277                           
   278                           ; 1 bytes @ 0x11
   279  00002D                     	ds	1
   280  00002E                     e2pext_w@tmp:
   281                           	callstack 0
   282                           
   283                           ; 2 bytes @ 0x12
   284  00002E                     	ds	2
   285  000030                     
   286                           ; 1 bytes @ 0x14
   287 ;;
   288 ;;Main: autosize = 0, tempsize = 0, incstack = 0, save=0
   289 ;;
   290 ;; *************** function _main *****************
   291 ;; Defined at:
   292 ;;		line 32 in file "mainEEPROM.c"
   293 ;; Parameters:    Size  Location     Type
   294 ;;		None
   295 ;; Auto vars:     Size  Location     Type
   296 ;;		None
   297 ;; Return value:  Size  Location     Type
   298 ;;                  1    wreg      void 
   299 ;; Registers used:
   300 ;;		wreg, fsr2l, fsr2h, status,2, status,0, cstack
   301 ;; Tracked objects:
   302 ;;		On entry : 0/0
   303 ;;		On exit  : 0/0
   304 ;;		Unchanged: 0/0
   305 ;; Data sizes:     COMRAM   BANK0   BANK1   BANK2   BANK3   BANK4   BANK5
   306 ;;      Params:         0       0       0       0       0       0       0
   307 ;;      Locals:         0       0       0       0       0       0       0
   308 ;;      Temps:          0       0       0       0       0       0       0
   309 ;;      Totals:         0       0       0       0       0       0       0
   310 ;;Total ram usage:        0 bytes
   311 ;; Hardware stack levels required when called:    4
   312 ;; This function calls:
   313 ;;		_Lcd_Cmd
   314 ;;		_Lcd_Init
   315 ;;		_Lcd_Out
   316 ;;		_e2pext_r
   317 ;;		_e2pext_w
   318 ;;		_e2prom_r
   319 ;;		_e2prom_w
   320 ;;		_i2c_init
   321 ;;		_i2c_start
   322 ;;		_rtc_r
   323 ;; This function is called by:
   324 ;;		Startup code after reset
   325 ;; This function uses a non-reentrant model
   326 ;;
   327                           
   328                           	psect	text0
   329  007BA8                     __ptext0:
   330                           	callstack 0
   331  007BA8                     _main:
   332                           	callstack 27
   333  007BA8                     
   334                           ;mainEEPROM.c: 34: ADCON0 = 0b00000000;
   335  007BA8  0E00               	movlw	0
   336  007BAA  6EC2               	movwf	194,c	;volatile
   337                           
   338                           ;mainEEPROM.c: 35: ADCON1 = 0x06;
   339  007BAC  0E06               	movlw	6
   340  007BAE  6EC1               	movwf	193,c	;volatile
   341  007BB0                     
   342                           ;mainEEPROM.c: 38: INTCON2bits.RBPU = 1;
   343  007BB0  8EF1               	bsf	241,7,c	;volatile
   344                           
   345                           ;mainEEPROM.c: 39: T1CON = 0b10000011;
   346  007BB2  0E83               	movlw	131
   347  007BB4  6ECD               	movwf	205,c	;volatile
   348                           
   349                           ;mainEEPROM.c: 42: TMR1L = 0;
   350  007BB6  0E00               	movlw	0
   351  007BB8  6ECE               	movwf	206,c	;volatile
   352                           
   353                           ;mainEEPROM.c: 43: TMR1H = 0;
   354  007BBA  0E00               	movlw	0
   355  007BBC  6ECF               	movwf	207,c	;volatile
   356  007BBE                     
   357                           ;mainEEPROM.c: 46: TRISA = 0xFF;
   358  007BBE  6892               	setf	146,c	;volatile
   359                           
   360                           ;mainEEPROM.c: 47: TRISB = 0b00000000;
   361  007BC0  0E00               	movlw	0
   362  007BC2  6E93               	movwf	147,c	;volatile
   363                           
   364                           ;mainEEPROM.c: 48: TRISC = 0b00000001;
   365  007BC4  0E01               	movlw	1
   366  007BC6  6E94               	movwf	148,c	;volatile
   367                           
   368                           ;mainEEPROM.c: 49: TRISD = 0b00000000;
   369  007BC8  0E00               	movlw	0
   370  007BCA  6E95               	movwf	149,c	;volatile
   371                           
   372                           ;mainEEPROM.c: 50: TRISE = 0b00000000;
   373  007BCC  0E00               	movlw	0
   374  007BCE  6E96               	movwf	150,c	;volatile
   375                           
   376                           ;mainEEPROM.c: 52: PORTA = 0;
   377  007BD0  0E00               	movlw	0
   378  007BD2  6E80               	movwf	128,c	;volatile
   379                           
   380                           ;mainEEPROM.c: 53: LATA = 0;
   381  007BD4  0E00               	movlw	0
   382  007BD6  6E89               	movwf	137,c	;volatile
   383                           
   384                           ;mainEEPROM.c: 54: PORTB = 0;
   385  007BD8  0E00               	movlw	0
   386  007BDA  6E81               	movwf	129,c	;volatile
   387                           
   388                           ;mainEEPROM.c: 55: LATB = 0;
   389  007BDC  0E00               	movlw	0
   390  007BDE  6E8A               	movwf	138,c	;volatile
   391                           
   392                           ;mainEEPROM.c: 56: PORTC = 0;
   393  007BE0  0E00               	movlw	0
   394  007BE2  6E82               	movwf	130,c	;volatile
   395                           
   396                           ;mainEEPROM.c: 57: LATC = 0;
   397  007BE4  0E00               	movlw	0
   398  007BE6  6E8B               	movwf	139,c	;volatile
   399                           
   400                           ;mainEEPROM.c: 58: PORTD = 0;
   401  007BE8  0E00               	movlw	0
   402  007BEA  6E83               	movwf	131,c	;volatile
   403                           
   404                           ;mainEEPROM.c: 59: LATD = 0;
   405  007BEC  0E00               	movlw	0
   406  007BEE  6E8C               	movwf	140,c	;volatile
   407                           
   408                           ;mainEEPROM.c: 60: PORTE = 0;
   409  007BF0  0E00               	movlw	0
   410  007BF2  6E84               	movwf	132,c	;volatile
   411                           
   412                           ;mainEEPROM.c: 61: LATE = 0;
   413  007BF4  0E00               	movlw	0
   414  007BF6  6E8D               	movwf	141,c	;volatile
   415  007BF8                     
   416                           ;mainEEPROM.c: 64: Lcd_Init();
   417  007BF8  EC48  F03E         	call	_Lcd_Init	;wreg free
   418  007BFC                     
   419                           ;mainEEPROM.c: 65: Lcd_Cmd(12);
   420  007BFC  0E0C               	movlw	12
   421  007BFE  ECD0  F03E         	call	_Lcd_Cmd
   422  007C02                     
   423                           ;mainEEPROM.c: 67: i2c_init();
   424  007C02  ECE5  F03B         	call	_i2c_init	;wreg free
   425  007C06                     
   426                           ;mainEEPROM.c: 68: i2c_start();
   427  007C06  ECFA  F03B         	call	_i2c_start	;wreg free
   428  007C0A                     
   429                           ;mainEEPROM.c: 71: rtc_r();
   430  007C0A  EC68  F03D         	call	_rtc_r	;wreg free
   431  007C0E                     
   432                           ;mainEEPROM.c: 74: e2prom_w(0, 33);
   433  007C0E  0E21               	movlw	33
   434  007C10  6E1C               	movwf	e2prom_w@val^0,c
   435  007C12  0E00               	movlw	0
   436  007C14  EC13  F03C         	call	_e2prom_w
   437  007C18                     
   438                           ;mainEEPROM.c: 75: e2pext_w(0, 47);
   439  007C18  0E00               	movlw	0
   440  007C1A  6E27               	movwf	(e2pext_w@addr+1)^0,c
   441  007C1C  0E00               	movlw	0
   442  007C1E  6E26               	movwf	e2pext_w@addr^0,c
   443  007C20  0E2F               	movlw	47
   444  007C22  6E28               	movwf	e2pext_w@val^0,c
   445  007C24  ECE1  F03C         	call	_e2pext_w	;wreg free
   446  007C28                     l154:
   447  007C28  0004               	clrwdt		;# 
   448  007C2A                     
   449                           ;mainEEPROM.c: 81: rtc_r();
   450  007C2A  EC68  F03D         	call	_rtc_r	;wreg free
   451  007C2E                     
   452                           ;mainEEPROM.c: 83: Lcd_Out(1, 0, date);
   453  007C2E  0E00               	movlw	0
   454  007C30  6E1F               	movwf	Lcd_Out@x^0,c
   455  007C32  0E12               	movlw	low _date
   456  007C34  6E20               	movwf	Lcd_Out@buffer^0,c
   457  007C36  0E00               	movlw	high _date
   458  007C38  6E21               	movwf	(Lcd_Out@buffer+1)^0,c
   459  007C3A  0E01               	movlw	1
   460  007C3C  EC23  F03D         	call	_Lcd_Out
   461  007C40                     
   462                           ;mainEEPROM.c: 84: Lcd_Out(2, 0, time);
   463  007C40  0E00               	movlw	0
   464  007C42  6E1F               	movwf	Lcd_Out@x^0,c
   465  007C44  0E08               	movlw	low _time
   466  007C46  6E20               	movwf	Lcd_Out@buffer^0,c
   467  007C48  0E00               	movlw	high _time
   468  007C4A  6E21               	movwf	(Lcd_Out@buffer+1)^0,c
   469  007C4C  0E02               	movlw	2
   470  007C4E  EC23  F03D         	call	_Lcd_Out
   471  007C52                     
   472                           ;mainEEPROM.c: 85: if(e2prom_r(0) == 33)
   473  007C52  0E00               	movlw	0
   474  007C54  ECEE  F03B         	call	_e2prom_r
   475  007C58  0A21               	xorlw	33
   476  007C5A  A4D8               	btfss	status,2,c
   477  007C5C  EF32  F03E         	goto	u451
   478  007C60  EF34  F03E         	goto	u450
   479  007C64                     u451:
   480  007C64  EF35  F03E         	goto	l1753
   481  007C68                     u450:
   482  007C68                     
   483                           ;mainEEPROM.c: 86: {;mainEEPROM.c: 87: LATDbits.LD0 = 1;
   484  007C68  808C               	bsf	140,0,c	;volatile
   485  007C6A                     l1753:
   486                           
   487                           ;mainEEPROM.c: 88: };mainEEPROM.c: 89: if(e2pext_r(0) == 47)
   488  007C6A  0E00               	movlw	0
   489  007C6C  6E22               	movwf	(e2pext_r@addr+1)^0,c
   490  007C6E  0E00               	movlw	0
   491  007C70  6E21               	movwf	e2pext_r@addr^0,c
   492  007C72  EC6C  F03C         	call	_e2pext_r	;wreg free
   493  007C76  0A2F               	xorlw	47
   494  007C78  A4D8               	btfss	status,2,c
   495  007C7A  EF41  F03E         	goto	u461
   496  007C7E  EF43  F03E         	goto	u460
   497  007C82                     u461:
   498  007C82  EF14  F03E         	goto	l154
   499  007C86                     u460:
   500  007C86                     
   501                           ;mainEEPROM.c: 90: {;mainEEPROM.c: 91: LATDbits.LD1 = 1;
   502  007C86  828C               	bsf	140,1,c	;volatile
   503  007C88  EF14  F03E         	goto	l154
   504  007C8C  EF00  F000         	goto	start
   505  007C90                     __end_of_main:
   506                           	callstack 0
   507                           
   508 ;; *************** function _rtc_r *****************
   509 ;; Defined at:
   510 ;;		line 44 in file "rtc_r.c"
   511 ;; Parameters:    Size  Location     Type
   512 ;;		None
   513 ;; Auto vars:     Size  Location     Type
   514 ;;  tmp             1    5[COMRAM] unsigned char 
   515 ;; Return value:  Size  Location     Type
   516 ;;                  1    wreg      void 
   517 ;; Registers used:
   518 ;;		wreg, status,2, status,0, cstack
   519 ;; Tracked objects:
   520 ;;		On entry : 0/0
   521 ;;		On exit  : 0/0
   522 ;;		Unchanged: 0/0
   523 ;; Data sizes:     COMRAM   BANK0   BANK1   BANK2   BANK3   BANK4   BANK5
   524 ;;      Params:         0       0       0       0       0       0       0
   525 ;;      Locals:         1       0       0       0       0       0       0
   526 ;;      Temps:          0       0       0       0       0       0       0
   527 ;;      Totals:         1       0       0       0       0       0       0
   528 ;;Total ram usage:        1 bytes
   529 ;; Hardware stack levels used:    1
   530 ;; Hardware stack levels required when called:    2
   531 ;; This function calls:
   532 ;;		_getd
   533 ;;		_getu
   534 ;;		_i2c_rb
   535 ;;		_i2c_start
   536 ;;		_i2c_stop
   537 ;;		_i2c_wb
   538 ;; This function is called by:
   539 ;;		_main
   540 ;; This function uses a non-reentrant model
   541 ;;
   542                           
   543                           	psect	text1
   544  007AD0                     __ptext1:
   545                           	callstack 0
   546  007AD0                     _rtc_r:
   547                           	callstack 28
   548  007AD0                     
   549                           ;rtc_r.c: 46: unsigned char tmp;;rtc_r.c: 48: i2c_start();
   550  007AD0  ECFA  F03B         	call	_i2c_start	;wreg free
   551  007AD4                     
   552                           ;rtc_r.c: 49: i2c_wb(0xD0);
   553  007AD4  0ED0               	movlw	208
   554  007AD6  EC3E  F03C         	call	_i2c_wb
   555  007ADA                     
   556                           ;rtc_r.c: 50: i2c_wb(0);
   557  007ADA  0E00               	movlw	0
   558  007ADC  EC3E  F03C         	call	_i2c_wb
   559                           
   560                           ;rtc_r.c: 52: i2c_start();
   561  007AE0  ECFA  F03B         	call	_i2c_start	;wreg free
   562  007AE4                     
   563                           ;rtc_r.c: 53: i2c_wb(0xD1);
   564  007AE4  0ED1               	movlw	209
   565  007AE6  EC3E  F03C         	call	_i2c_wb
   566  007AEA                     
   567                           ;rtc_r.c: 54: tmp= 0x7F & i2c_rb(1);
   568  007AEA  0E01               	movlw	1
   569  007AEC  ECA0  F03C         	call	_i2c_rb
   570  007AF0  0B7F               	andlw	127
   571  007AF2  6E21               	movwf	rtc_r@tmp^0,c
   572  007AF4                     
   573                           ;rtc_r.c: 55: time[5]=':';
   574  007AF4  0E3A               	movlw	58
   575  007AF6  6E0D               	movwf	(_time+5)^0,c	;volatile
   576  007AF8                     
   577                           ;rtc_r.c: 56: time[6]=getd(tmp);
   578  007AF8  5021               	movf	rtc_r@tmp^0,w,c
   579  007AFA  ECF4  F03B         	call	_getd
   580  007AFE  6E0E               	movwf	(_time+6)^0,c	;volatile
   581  007B00                     
   582                           ;rtc_r.c: 57: time[7]=getu(tmp);
   583  007B00  5021               	movf	rtc_r@tmp^0,w,c
   584  007B02  ECE9  F03B         	call	_getu
   585  007B06  6E0F               	movwf	(_time+7)^0,c	;volatile
   586  007B08                     
   587                           ;rtc_r.c: 58: time[8]=0;
   588  007B08  0E00               	movlw	0
   589  007B0A  6E10               	movwf	(_time+8)^0,c	;volatile
   590  007B0C                     
   591                           ;rtc_r.c: 60: tmp= 0x7F & i2c_rb(1);
   592  007B0C  0E01               	movlw	1
   593  007B0E  ECA0  F03C         	call	_i2c_rb
   594  007B12  0B7F               	andlw	127
   595  007B14  6E21               	movwf	rtc_r@tmp^0,c
   596  007B16                     
   597                           ;rtc_r.c: 61: time[2]=':';
   598  007B16  0E3A               	movlw	58
   599  007B18  6E0A               	movwf	(_time+2)^0,c	;volatile
   600  007B1A                     
   601                           ;rtc_r.c: 62: time[3]=getd(tmp);
   602  007B1A  5021               	movf	rtc_r@tmp^0,w,c
   603  007B1C  ECF4  F03B         	call	_getd
   604  007B20  6E0B               	movwf	(_time+3)^0,c	;volatile
   605  007B22                     
   606                           ;rtc_r.c: 63: time[4]=getu(tmp);
   607  007B22  5021               	movf	rtc_r@tmp^0,w,c
   608  007B24  ECE9  F03B         	call	_getu
   609  007B28  6E0C               	movwf	(_time+4)^0,c	;volatile
   610  007B2A                     
   611                           ;rtc_r.c: 65: tmp= 0x3F & i2c_rb(1);
   612  007B2A  0E01               	movlw	1
   613  007B2C  ECA0  F03C         	call	_i2c_rb
   614  007B30  0B3F               	andlw	63
   615  007B32  6E21               	movwf	rtc_r@tmp^0,c
   616  007B34                     
   617                           ;rtc_r.c: 66: time[0]=getd(tmp);
   618  007B34  5021               	movf	rtc_r@tmp^0,w,c
   619  007B36  ECF4  F03B         	call	_getd
   620  007B3A  6E08               	movwf	_time^0,c	;volatile
   621  007B3C                     
   622                           ;rtc_r.c: 67: time[1]=getu(tmp);
   623  007B3C  5021               	movf	rtc_r@tmp^0,w,c
   624  007B3E  ECE9  F03B         	call	_getu
   625  007B42  6E09               	movwf	(_time+1)^0,c	;volatile
   626  007B44                     
   627                           ;rtc_r.c: 69: i2c_rb(1);
   628  007B44  0E01               	movlw	1
   629  007B46  ECA0  F03C         	call	_i2c_rb
   630  007B4A                     
   631                           ;rtc_r.c: 71: tmp= 0x3F & i2c_rb(1);
   632  007B4A  0E01               	movlw	1
   633  007B4C  ECA0  F03C         	call	_i2c_rb
   634  007B50  0B3F               	andlw	63
   635  007B52  6E21               	movwf	rtc_r@tmp^0,c
   636  007B54                     
   637                           ;rtc_r.c: 72: date[0]=getd(tmp);
   638  007B54  5021               	movf	rtc_r@tmp^0,w,c
   639  007B56  ECF4  F03B         	call	_getd
   640  007B5A  6E12               	movwf	_date^0,c	;volatile
   641  007B5C                     
   642                           ;rtc_r.c: 73: date[1]=getu(tmp);
   643  007B5C  5021               	movf	rtc_r@tmp^0,w,c
   644  007B5E  ECE9  F03B         	call	_getu
   645  007B62  6E13               	movwf	(_date+1)^0,c	;volatile
   646  007B64                     
   647                           ;rtc_r.c: 76: tmp= 0x1F & i2c_rb(1);
   648  007B64  0E01               	movlw	1
   649  007B66  ECA0  F03C         	call	_i2c_rb
   650  007B6A  0B1F               	andlw	31
   651  007B6C  6E21               	movwf	rtc_r@tmp^0,c
   652  007B6E                     
   653                           ;rtc_r.c: 77: date[2]='/';
   654  007B6E  0E2F               	movlw	47
   655  007B70  6E14               	movwf	(_date+2)^0,c	;volatile
   656  007B72                     
   657                           ;rtc_r.c: 78: date[3]=getd(tmp);
   658  007B72  5021               	movf	rtc_r@tmp^0,w,c
   659  007B74  ECF4  F03B         	call	_getd
   660  007B78  6E15               	movwf	(_date+3)^0,c	;volatile
   661  007B7A                     
   662                           ;rtc_r.c: 79: date[4]=getu(tmp);
   663  007B7A  5021               	movf	rtc_r@tmp^0,w,c
   664  007B7C  ECE9  F03B         	call	_getu
   665  007B80  6E16               	movwf	(_date+4)^0,c	;volatile
   666  007B82                     
   667                           ;rtc_r.c: 81: tmp= i2c_rb(0);
   668  007B82  0E00               	movlw	0
   669  007B84  ECA0  F03C         	call	_i2c_rb
   670  007B88  6E21               	movwf	rtc_r@tmp^0,c
   671  007B8A                     
   672                           ;rtc_r.c: 82: date[5]='/';
   673  007B8A  0E2F               	movlw	47
   674  007B8C  6E17               	movwf	(_date+5)^0,c	;volatile
   675  007B8E                     
   676                           ;rtc_r.c: 83: date[6]=getd(tmp);
   677  007B8E  5021               	movf	rtc_r@tmp^0,w,c
   678  007B90  ECF4  F03B         	call	_getd
   679  007B94  6E18               	movwf	(_date+6)^0,c	;volatile
   680  007B96                     
   681                           ;rtc_r.c: 84: date[7]=getu(tmp);
   682  007B96  5021               	movf	rtc_r@tmp^0,w,c
   683  007B98  ECE9  F03B         	call	_getu
   684  007B9C  6E19               	movwf	(_date+7)^0,c	;volatile
   685  007B9E                     
   686                           ;rtc_r.c: 85: date[8]=0;
   687  007B9E  0E00               	movlw	0
   688  007BA0  6E1A               	movwf	(_date+8)^0,c	;volatile
   689                           
   690                           ;rtc_r.c: 87: i2c_stop();
   691  007BA2  EC02  F03C         	call	_i2c_stop	;wreg free
   692  007BA6  0012               	return		;funcret
   693  007BA8                     __end_of_rtc_r:
   694                           	callstack 0
   695                           
   696 ;; *************** function _getu *****************
   697 ;; Defined at:
   698 ;;		line 38 in file "rtc_r.c"
   699 ;; Parameters:    Size  Location     Type
   700 ;;  nn              1    wreg     unsigned char 
   701 ;; Auto vars:     Size  Location     Type
   702 ;;  nn              1    0[COMRAM] unsigned char 
   703 ;; Return value:  Size  Location     Type
   704 ;;                  1    wreg      unsigned char 
   705 ;; Registers used:
   706 ;;		wreg, status,2, status,0
   707 ;; Tracked objects:
   708 ;;		On entry : 0/0
   709 ;;		On exit  : 0/0
   710 ;;		Unchanged: 0/0
   711 ;; Data sizes:     COMRAM   BANK0   BANK1   BANK2   BANK3   BANK4   BANK5
   712 ;;      Params:         0       0       0       0       0       0       0
   713 ;;      Locals:         1       0       0       0       0       0       0
   714 ;;      Temps:          0       0       0       0       0       0       0
   715 ;;      Totals:         1       0       0       0       0       0       0
   716 ;;Total ram usage:        1 bytes
   717 ;; Hardware stack levels used:    1
   718 ;; This function calls:
   719 ;;		Nothing
   720 ;; This function is called by:
   721 ;;		_rtc_r
   722 ;; This function uses a non-reentrant model
   723 ;;
   724                           
   725                           	psect	text2
   726  0077D2                     __ptext2:
   727                           	callstack 0
   728  0077D2                     _getu:
   729                           	callstack 29
   730                           
   731                           ;incstack = 0
   732                           ;getu@nn stored from wreg
   733  0077D2  6E1C               	movwf	getu@nn^0,c
   734  0077D4                     
   735                           ;rtc_r.c: 40: return (nn & 0x0F)+0x30;
   736  0077D4  501C               	movf	getu@nn^0,w,c
   737  0077D6  0B0F               	andlw	15
   738  0077D8  0F30               	addlw	48
   739  0077DA  0012               	return		;funcret
   740  0077DC                     __end_of_getu:
   741                           	callstack 0
   742                           
   743 ;; *************** function _getd *****************
   744 ;; Defined at:
   745 ;;		line 33 in file "rtc_r.c"
   746 ;; Parameters:    Size  Location     Type
   747 ;;  nn              1    wreg     unsigned char 
   748 ;; Auto vars:     Size  Location     Type
   749 ;;  nn              1    0[COMRAM] unsigned char 
   750 ;; Return value:  Size  Location     Type
   751 ;;                  1    wreg      unsigned char 
   752 ;; Registers used:
   753 ;;		wreg, status,2, status,0
   754 ;; Tracked objects:
   755 ;;		On entry : 0/0
   756 ;;		On exit  : 0/0
   757 ;;		Unchanged: 0/0
   758 ;; Data sizes:     COMRAM   BANK0   BANK1   BANK2   BANK3   BANK4   BANK5
   759 ;;      Params:         0       0       0       0       0       0       0
   760 ;;      Locals:         1       0       0       0       0       0       0
   761 ;;      Temps:          0       0       0       0       0       0       0
   762 ;;      Totals:         1       0       0       0       0       0       0
   763 ;;Total ram usage:        1 bytes
   764 ;; Hardware stack levels used:    1
   765 ;; This function calls:
   766 ;;		Nothing
   767 ;; This function is called by:
   768 ;;		_rtc_r
   769 ;; This function uses a non-reentrant model
   770 ;;
   771                           
   772                           	psect	text3
   773  0077E8                     __ptext3:
   774                           	callstack 0
   775  0077E8                     _getd:
   776                           	callstack 29
   777                           
   778                           ;incstack = 0
   779                           ;getd@nn stored from wreg
   780  0077E8  6E1C               	movwf	getd@nn^0,c
   781  0077EA                     
   782                           ;rtc_r.c: 35: return ((nn & 0xF0)>>4)+0x30;
   783  0077EA  381C               	swapf	getd@nn^0,w,c
   784  0077EC  0B0F               	andlw	15
   785  0077EE  0B0F               	andlw	15
   786  0077F0  0F30               	addlw	48
   787  0077F2  0012               	return		;funcret
   788  0077F4                     __end_of_getd:
   789                           	callstack 0
   790                           
   791 ;; *************** function _i2c_init *****************
   792 ;; Defined at:
   793 ;;		line 41 in file "i2c.c"
   794 ;; Parameters:    Size  Location     Type
   795 ;;		None
   796 ;; Auto vars:     Size  Location     Type
   797 ;;		None
   798 ;; Return value:  Size  Location     Type
   799 ;;                  1    wreg      void 
   800 ;; Registers used:
   801 ;;		None
   802 ;; Tracked objects:
   803 ;;		On entry : 0/0
   804 ;;		On exit  : 0/0
   805 ;;		Unchanged: 0/0
   806 ;; Data sizes:     COMRAM   BANK0   BANK1   BANK2   BANK3   BANK4   BANK5
   807 ;;      Params:         0       0       0       0       0       0       0
   808 ;;      Locals:         0       0       0       0       0       0       0
   809 ;;      Temps:          0       0       0       0       0       0       0
   810 ;;      Totals:         0       0       0       0       0       0       0
   811 ;;Total ram usage:        0 bytes
   812 ;; Hardware stack levels used:    1
   813 ;; This function calls:
   814 ;;		Nothing
   815 ;; This function is called by:
   816 ;;		_main
   817 ;; This function uses a non-reentrant model
   818 ;;
   819                           
   820                           	psect	text4
   821  0077CA                     __ptext4:
   822                           	callstack 0
   823  0077CA                     _i2c_init:
   824                           	callstack 30
   825  0077CA                     
   826                           ;i2c.c: 43: TRISCbits.TRISC4=0;
   827  0077CA  9894               	bcf	148,4,c	;volatile
   828                           
   829                           ;i2c.c: 44: PORTCbits.RC3=1;
   830  0077CC  8682               	bsf	130,3,c	;volatile
   831                           
   832                           ;i2c.c: 45: PORTCbits.RC4=1;
   833  0077CE  8882               	bsf	130,4,c	;volatile
   834  0077D0  0012               	return		;funcret
   835  0077D2                     __end_of_i2c_init:
   836                           	callstack 0
   837                           
   838 ;; *************** function _e2prom_w *****************
   839 ;; Defined at:
   840 ;;		line 37 in file "eeprom.c"
   841 ;; Parameters:    Size  Location     Type
   842 ;;  addr            1    wreg     unsigned char 
   843 ;;  val             1    0[COMRAM] unsigned char 
   844 ;; Auto vars:     Size  Location     Type
   845 ;;  addr            1    1[COMRAM] unsigned char 
   846 ;; Return value:  Size  Location     Type
   847 ;;                  1    wreg      void 
   848 ;; Registers used:
   849 ;;		wreg, status,2
   850 ;; Tracked objects:
   851 ;;		On entry : 0/0
   852 ;;		On exit  : 0/0
   853 ;;		Unchanged: 0/0
   854 ;; Data sizes:     COMRAM   BANK0   BANK1   BANK2   BANK3   BANK4   BANK5
   855 ;;      Params:         1       0       0       0       0       0       0
   856 ;;      Locals:         1       0       0       0       0       0       0
   857 ;;      Temps:          0       0       0       0       0       0       0
   858 ;;      Totals:         2       0       0       0       0       0       0
   859 ;;Total ram usage:        2 bytes
   860 ;; Hardware stack levels used:    1
   861 ;; This function calls:
   862 ;;		Nothing
   863 ;; This function is called by:
   864 ;;		_main
   865 ;; This function uses a non-reentrant model
   866 ;;
   867                           
   868                           	psect	text5
   869  007826                     __ptext5:
   870                           	callstack 0
   871  007826                     _e2prom_w:
   872                           	callstack 30
   873                           
   874                           ;incstack = 0
   875                           ;e2prom_w@addr stored from wreg
   876  007826  6E1D               	movwf	e2prom_w@addr^0,c
   877  007828                     
   878                           ;eeprom.c: 39: EEADR= addr;
   879  007828  C01D  FFA9         	movff	e2prom_w@addr,4009	;volatile
   880  00782C                     
   881                           ;eeprom.c: 40: EEDATA=val;
   882  00782C  C01C  FFA8         	movff	e2prom_w@val,4008	;volatile
   883  007830                     
   884                           ;eeprom.c: 42: EECON1bits.WREN=1;
   885  007830  84A6               	bsf	166,2,c	;volsfr
   886  007832                     
   887                           ;eeprom.c: 44: EECON2=0x55;
   888  007832  0E55               	movlw	85
   889  007834  6EA7               	movwf	167,c	;volsfr
   890  007836                     
   891                           ;eeprom.c: 45: EECON2=0xAA;
   892  007836  0EAA               	movlw	170
   893  007838  6EA7               	movwf	167,c	;volsfr
   894  00783A                     
   895                           ;eeprom.c: 47: EECON1bits.WR=1;
   896  00783A  82A6               	bsf	166,1,c	;volsfr
   897  00783C                     l194:
   898  00783C  B2A6               	btfsc	166,1,c	;volsfr
   899  00783E  EF23  F03C         	goto	u401
   900  007842  EF25  F03C         	goto	u400
   901  007846                     u401:
   902  007846  EF1E  F03C         	goto	l194
   903  00784A                     u400:
   904  00784A                     
   905                           ;eeprom.c: 50: EECON1bits.WREN=0;
   906  00784A  94A6               	bcf	166,2,c	;volsfr
   907  00784C  0012               	return		;funcret
   908  00784E                     __end_of_e2prom_w:
   909                           	callstack 0
   910                           
   911 ;; *************** function _e2prom_r *****************
   912 ;; Defined at:
   913 ;;		line 29 in file "eeprom.c"
   914 ;; Parameters:    Size  Location     Type
   915 ;;  addr            1    wreg     unsigned char 
   916 ;; Auto vars:     Size  Location     Type
   917 ;;  addr            1    0[COMRAM] unsigned char 
   918 ;; Return value:  Size  Location     Type
   919 ;;                  1    wreg      unsigned char 
   920 ;; Registers used:
   921 ;;		wreg, status,2
   922 ;; Tracked objects:
   923 ;;		On entry : 0/0
   924 ;;		On exit  : 0/0
   925 ;;		Unchanged: 0/0
   926 ;; Data sizes:     COMRAM   BANK0   BANK1   BANK2   BANK3   BANK4   BANK5
   927 ;;      Params:         0       0       0       0       0       0       0
   928 ;;      Locals:         1       0       0       0       0       0       0
   929 ;;      Temps:          0       0       0       0       0       0       0
   930 ;;      Totals:         1       0       0       0       0       0       0
   931 ;;Total ram usage:        1 bytes
   932 ;; Hardware stack levels used:    1
   933 ;; This function calls:
   934 ;;		Nothing
   935 ;; This function is called by:
   936 ;;		_main
   937 ;; This function uses a non-reentrant model
   938 ;;
   939                           
   940                           	psect	text6
   941  0077DC                     __ptext6:
   942                           	callstack 0
   943  0077DC                     _e2prom_r:
   944                           	callstack 30
   945                           
   946                           ;incstack = 0
   947                           ;e2prom_r@addr stored from wreg
   948  0077DC  6E1C               	movwf	e2prom_r@addr^0,c
   949  0077DE                     
   950                           ;eeprom.c: 31: EEADR= addr;
   951  0077DE  C01C  FFA9         	movff	e2prom_r@addr,4009	;volatile
   952  0077E2                     
   953                           ;eeprom.c: 32: EECON1bits.RD=1;
   954  0077E2  80A6               	bsf	166,0,c	;volsfr
   955  0077E4                     
   956                           ;eeprom.c: 33: return EEDATA;
   957  0077E4  50A8               	movf	168,w,c	;volatile
   958  0077E6  0012               	return		;funcret
   959  0077E8                     __end_of_e2prom_r:
   960                           	callstack 0
   961                           
   962 ;; *************** function _e2pext_w *****************
   963 ;; Defined at:
   964 ;;		line 65 in file "eeprom_ext.c"
   965 ;; Parameters:    Size  Location     Type
   966 ;;  addr            2   10[COMRAM] unsigned int 
   967 ;;  val             1   12[COMRAM] unsigned char 
   968 ;; Auto vars:     Size  Location     Type
   969 ;;  tmp             2   18[COMRAM] unsigned int 
   970 ;;  nt              1   17[COMRAM] unsigned char 
   971 ;;  al              1   16[COMRAM] unsigned char 
   972 ;;  ah              1   15[COMRAM] unsigned char 
   973 ;; Return value:  Size  Location     Type
   974 ;;                  1    wreg      void 
   975 ;; Registers used:
   976 ;;		wreg, status,2, status,0, cstack
   977 ;; Tracked objects:
   978 ;;		On entry : 0/0
   979 ;;		On exit  : 0/0
   980 ;;		Unchanged: 0/0
   981 ;; Data sizes:     COMRAM   BANK0   BANK1   BANK2   BANK3   BANK4   BANK5
   982 ;;      Params:         3       0       0       0       0       0       0
   983 ;;      Locals:         5       0       0       0       0       0       0
   984 ;;      Temps:          2       0       0       0       0       0       0
   985 ;;      Totals:        10       0       0       0       0       0       0
   986 ;;Total ram usage:       10 bytes
   987 ;; Hardware stack levels used:    1
   988 ;; Hardware stack levels required when called:    3
   989 ;; This function calls:
   990 ;;		_e2pext_r
   991 ;;		_i2c_start
   992 ;;		_i2c_stop
   993 ;;		_i2c_wb
   994 ;; This function is called by:
   995 ;;		_main
   996 ;; This function uses a non-reentrant model
   997 ;;
   998                           
   999                           	psect	text7
  1000  0079C2                     __ptext7:
  1001                           	callstack 0
  1002  0079C2                     _e2pext_w:
  1003                           	callstack 27
  1004  0079C2                     
  1005                           ;eeprom_ext.c: 67: unsigned int tmp;;eeprom_ext.c: 68: unsigned char ah;;eeprom_ext.c: 6
      +                          9: unsigned char al;;eeprom_ext.c: 70: unsigned char nt;;eeprom_ext.c: 72: tmp=val;
  1006  0079C2  C028  F02E         	movff	e2pext_w@val,e2pext_w@tmp
  1007  0079C6  6A2F               	clrf	(e2pext_w@tmp+1)^0,c
  1008  0079C8                     
  1009                           ;eeprom_ext.c: 73: ah=(addr&0x0100)>>8;
  1010  0079C8  5027               	movf	(e2pext_w@addr+1)^0,w,c
  1011  0079CA  0B01               	andlw	1
  1012  0079CC  6E2B               	movwf	e2pext_w@ah^0,c
  1013  0079CE                     
  1014                           ;eeprom_ext.c: 74: al=addr&0x00FF;
  1015  0079CE  C026  F02C         	movff	e2pext_w@addr,e2pext_w@al
  1016  0079D2                     
  1017                           ;eeprom_ext.c: 75: nt=0;
  1018  0079D2  0E00               	movlw	0
  1019  0079D4  6E2D               	movwf	e2pext_w@nt^0,c
  1020  0079D6                     l1677:
  1021                           
  1022                           ;eeprom_ext.c: 78: {;eeprom_ext.c: 79: i2c_start();
  1023  0079D6  ECFA  F03B         	call	_i2c_start	;wreg free
  1024  0079DA                     
  1025                           ;eeprom_ext.c: 80: if(ah)
  1026  0079DA  502B               	movf	e2pext_w@ah^0,w,c
  1027  0079DC  B4D8               	btfsc	status,2,c
  1028  0079DE  EFF3  F03C         	goto	u411
  1029  0079E2  EFF5  F03C         	goto	u410
  1030  0079E6                     u411:
  1031  0079E6  EFFA  F03C         	goto	l1683
  1032  0079EA                     u410:
  1033  0079EA                     
  1034                           ;eeprom_ext.c: 81: {;eeprom_ext.c: 82: i2c_wb(0xA2);
  1035  0079EA  0EA2               	movlw	162
  1036  0079EC  EC3E  F03C         	call	_i2c_wb
  1037                           
  1038                           ;eeprom_ext.c: 83: }
  1039  0079F0  EFFD  F03C         	goto	l217
  1040  0079F4                     l1683:
  1041                           
  1042                           ;eeprom_ext.c: 84: else;eeprom_ext.c: 85: {;eeprom_ext.c: 86: i2c_wb(0xA0);
  1043  0079F4  0EA0               	movlw	160
  1044  0079F6  EC3E  F03C         	call	_i2c_wb
  1045  0079FA                     l217:
  1046                           
  1047                           ;eeprom_ext.c: 87: };eeprom_ext.c: 88: i2c_wb(al);
  1048  0079FA  502C               	movf	e2pext_w@al^0,w,c
  1049  0079FC  EC3E  F03C         	call	_i2c_wb
  1050                           
  1051                           ;eeprom_ext.c: 89: i2c_wb(tmp);
  1052  007A00  502E               	movf	e2pext_w@tmp^0,w,c
  1053  007A02  EC3E  F03C         	call	_i2c_wb
  1054  007A06                     
  1055                           ;eeprom_ext.c: 90: i2c_stop();
  1056  007A06  EC02  F03C         	call	_i2c_stop	;wreg free
  1057  007A0A                     
  1058                           ;eeprom_ext.c: 92: nt++;
  1059  007A0A  2A2D               	incf	e2pext_w@nt^0,f,c
  1060  007A0C                     
  1061                           ;eeprom_ext.c: 93: };eeprom_ext.c: 94: while((tmp != e2pext_r(addr))&&(nt < 10));
  1062  007A0C  C026  F021         	movff	e2pext_w@addr,e2pext_r@addr
  1063  007A10  C027  F022         	movff	e2pext_w@addr+1,e2pext_r@addr+1
  1064  007A14  EC6C  F03C         	call	_e2pext_r	;wreg free
  1065  007A18  6E29               	movwf	??_e2pext_w^0,c
  1066  007A1A  6A2A               	clrf	(??_e2pext_w+1)^0,c
  1067  007A1C  502E               	movf	e2pext_w@tmp^0,w,c
  1068  007A1E  1829               	xorwf	??_e2pext_w^0,w,c
  1069  007A20  E109               	bnz	u420
  1070  007A22  502F               	movf	(e2pext_w@tmp+1)^0,w,c
  1071  007A24  182A               	xorwf	(??_e2pext_w+1)^0,w,c
  1072  007A26  B4D8               	btfsc	status,2,c
  1073  007A28  EF18  F03D         	goto	u421
  1074  007A2C  EF1A  F03D         	goto	u420
  1075  007A30                     u421:
  1076  007A30  EF22  F03D         	goto	l221
  1077  007A34                     u420:
  1078  007A34  0E09               	movlw	9
  1079  007A36  642D               	cpfsgt	e2pext_w@nt^0,c
  1080  007A38  EF20  F03D         	goto	u431
  1081  007A3C  EF22  F03D         	goto	u430
  1082  007A40                     u431:
  1083  007A40  EFEB  F03C         	goto	l1677
  1084  007A44                     u430:
  1085  007A44                     l221:
  1086  007A44  0012               	return		;funcret
  1087  007A46                     __end_of_e2pext_w:
  1088                           	callstack 0
  1089                           
  1090 ;; *************** function _e2pext_r *****************
  1091 ;; Defined at:
  1092 ;;		line 29 in file "eeprom_ext.c"
  1093 ;; Parameters:    Size  Location     Type
  1094 ;;  addr            2    5[COMRAM] unsigned int 
  1095 ;; Auto vars:     Size  Location     Type
  1096 ;;  ah              1    9[COMRAM] unsigned char 
  1097 ;;  al              1    8[COMRAM] unsigned char 
  1098 ;;  ret             1    7[COMRAM] unsigned char 
  1099 ;; Return value:  Size  Location     Type
  1100 ;;                  1    wreg      unsigned char 
  1101 ;; Registers used:
  1102 ;;		wreg, status,2, status,0, cstack
  1103 ;; Tracked objects:
  1104 ;;		On entry : 0/0
  1105 ;;		On exit  : 0/0
  1106 ;;		Unchanged: 0/0
  1107 ;; Data sizes:     COMRAM   BANK0   BANK1   BANK2   BANK3   BANK4   BANK5
  1108 ;;      Params:         2       0       0       0       0       0       0
  1109 ;;      Locals:         3       0       0       0       0       0       0
  1110 ;;      Temps:          0       0       0       0       0       0       0
  1111 ;;      Totals:         5       0       0       0       0       0       0
  1112 ;;Total ram usage:        5 bytes
  1113 ;; Hardware stack levels used:    1
  1114 ;; Hardware stack levels required when called:    2
  1115 ;; This function calls:
  1116 ;;		_i2c_rb
  1117 ;;		_i2c_start
  1118 ;;		_i2c_stop
  1119 ;;		_i2c_wb
  1120 ;; This function is called by:
  1121 ;;		_main
  1122 ;;		_e2pext_w
  1123 ;; This function uses a non-reentrant model
  1124 ;;
  1125                           
  1126                           	psect	text8
  1127  0078D8                     __ptext8:
  1128                           	callstack 0
  1129  0078D8                     _e2pext_r:
  1130                           	callstack 27
  1131  0078D8                     
  1132                           ;eeprom_ext.c: 31: unsigned char ret;;eeprom_ext.c: 32: unsigned char ah;;eeprom_ext.c: 
      +                          33: unsigned char al;;eeprom_ext.c: 35: ah=(addr&0x0100)>>8;
  1133  0078D8  5022               	movf	(e2pext_r@addr+1)^0,w,c
  1134  0078DA  0B01               	andlw	1
  1135  0078DC  6E25               	movwf	e2pext_r@ah^0,c
  1136  0078DE                     
  1137                           ;eeprom_ext.c: 36: al=addr&0x00FF;
  1138  0078DE  C021  F024         	movff	e2pext_r@addr,e2pext_r@al
  1139  0078E2                     
  1140                           ;eeprom_ext.c: 38: i2c_start();
  1141  0078E2  ECFA  F03B         	call	_i2c_start	;wreg free
  1142  0078E6                     
  1143                           ;eeprom_ext.c: 39: if(ah)
  1144  0078E6  5025               	movf	e2pext_r@ah^0,w,c
  1145  0078E8  B4D8               	btfsc	status,2,c
  1146  0078EA  EF79  F03C         	goto	u361
  1147  0078EE  EF7B  F03C         	goto	u360
  1148  0078F2                     u361:
  1149  0078F2  EF80  F03C         	goto	l1495
  1150  0078F6                     u360:
  1151  0078F6                     
  1152                           ;eeprom_ext.c: 40: {;eeprom_ext.c: 41: i2c_wb(0xA2);
  1153  0078F6  0EA2               	movlw	162
  1154  0078F8  EC3E  F03C         	call	_i2c_wb
  1155                           
  1156                           ;eeprom_ext.c: 42: }
  1157  0078FC  EF83  F03C         	goto	l209
  1158  007900                     l1495:
  1159                           
  1160                           ;eeprom_ext.c: 43: else;eeprom_ext.c: 44: {;eeprom_ext.c: 45: i2c_wb(0xA0);
  1161  007900  0EA0               	movlw	160
  1162  007902  EC3E  F03C         	call	_i2c_wb
  1163  007906                     l209:
  1164                           
  1165                           ;eeprom_ext.c: 46: };eeprom_ext.c: 47: i2c_wb(al);
  1166  007906  5024               	movf	e2pext_r@al^0,w,c
  1167  007908  EC3E  F03C         	call	_i2c_wb
  1168  00790C                     
  1169                           ;eeprom_ext.c: 49: i2c_start();
  1170  00790C  ECFA  F03B         	call	_i2c_start	;wreg free
  1171  007910                     
  1172                           ;eeprom_ext.c: 50: if(ah)
  1173  007910  5025               	movf	e2pext_r@ah^0,w,c
  1174  007912  B4D8               	btfsc	status,2,c
  1175  007914  EF8E  F03C         	goto	u371
  1176  007918  EF90  F03C         	goto	u370
  1177  00791C                     u371:
  1178  00791C  EF95  F03C         	goto	l1503
  1179  007920                     u370:
  1180  007920                     
  1181                           ;eeprom_ext.c: 51: {;eeprom_ext.c: 52: i2c_wb(0xA3);
  1182  007920  0EA3               	movlw	163
  1183  007922  EC3E  F03C         	call	_i2c_wb
  1184                           
  1185                           ;eeprom_ext.c: 53: }
  1186  007926  EF98  F03C         	goto	l211
  1187  00792A                     l1503:
  1188                           
  1189                           ;eeprom_ext.c: 54: else;eeprom_ext.c: 55: {;eeprom_ext.c: 56: i2c_wb(0xA1);
  1190  00792A  0EA1               	movlw	161
  1191  00792C  EC3E  F03C         	call	_i2c_wb
  1192  007930                     l211:
  1193                           
  1194                           ;eeprom_ext.c: 57: };eeprom_ext.c: 58: ret=i2c_rb(1);
  1195  007930  0E01               	movlw	1
  1196  007932  ECA0  F03C         	call	_i2c_rb
  1197  007936  6E23               	movwf	e2pext_r@ret^0,c
  1198  007938                     
  1199                           ;eeprom_ext.c: 59: i2c_stop();
  1200  007938  EC02  F03C         	call	_i2c_stop	;wreg free
  1201  00793C                     
  1202                           ;eeprom_ext.c: 61: return ret;
  1203  00793C  5023               	movf	e2pext_r@ret^0,w,c
  1204  00793E  0012               	return		;funcret
  1205  007940                     __end_of_e2pext_r:
  1206                           	callstack 0
  1207                           
  1208 ;; *************** function _i2c_wb *****************
  1209 ;; Defined at:
  1210 ;;		line 66 in file "i2c.c"
  1211 ;; Parameters:    Size  Location     Type
  1212 ;;  val             1    wreg     unsigned char 
  1213 ;; Auto vars:     Size  Location     Type
  1214 ;;  val             1    2[COMRAM] unsigned char 
  1215 ;;  i               1    3[COMRAM] unsigned char 
  1216 ;; Return value:  Size  Location     Type
  1217 ;;                  1    wreg      void 
  1218 ;; Registers used:
  1219 ;;		wreg, status,2, status,0, cstack
  1220 ;; Tracked objects:
  1221 ;;		On entry : 0/0
  1222 ;;		On exit  : 0/0
  1223 ;;		Unchanged: 0/0
  1224 ;; Data sizes:     COMRAM   BANK0   BANK1   BANK2   BANK3   BANK4   BANK5
  1225 ;;      Params:         0       0       0       0       0       0       0
  1226 ;;      Locals:         2       0       0       0       0       0       0
  1227 ;;      Temps:          2       0       0       0       0       0       0
  1228 ;;      Totals:         4       0       0       0       0       0       0
  1229 ;;Total ram usage:        4 bytes
  1230 ;; Hardware stack levels used:    1
  1231 ;; Hardware stack levels required when called:    1
  1232 ;; This function calls:
  1233 ;;		_delay
  1234 ;; This function is called by:
  1235 ;;		_rtc_r
  1236 ;;		_e2pext_r
  1237 ;;		_e2pext_w
  1238 ;; This function uses a non-reentrant model
  1239 ;;
  1240                           
  1241                           	psect	text9
  1242  00787C                     __ptext9:
  1243                           	callstack 0
  1244  00787C                     _i2c_wb:
  1245                           	callstack 28
  1246                           
  1247                           ;incstack = 0
  1248                           ;i2c_wb@val stored from wreg
  1249  00787C  6E1E               	movwf	i2c_wb@val^0,c
  1250  00787E                     
  1251                           ;i2c.c: 68: unsigned char i;;i2c.c: 69: PORTCbits.RC3=0;
  1252  00787E  9682               	bcf	130,3,c	;volatile
  1253  007880                     
  1254                           ;i2c.c: 70: for(i=0;i<8;i++)
  1255  007880  0E00               	movlw	0
  1256  007882  6E1F               	movwf	i2c_wb@i^0,c
  1257  007884                     l1385:
  1258                           
  1259                           ;i2c.c: 71: {;i2c.c: 72: PORTCbits.RC4=((val>>(7-i))& 0x01);
  1260  007884  501F               	movf	i2c_wb@i^0,w,c
  1261  007886  0807               	sublw	7
  1262  007888  6E1C               	movwf	??_i2c_wb^0,c
  1263  00788A  C01E  F01D         	movff	i2c_wb@val,??_i2c_wb+1
  1264  00788E  2A1C               	incf	??_i2c_wb^0,f,c
  1265  007890  EF4C  F03C         	goto	u244
  1266  007894                     u245:
  1267  007894  90D8               	bcf	status,0,c
  1268  007896  321D               	rrcf	(??_i2c_wb+1)^0,f,c
  1269  007898                     u244:
  1270  007898  2E1C               	decfsz	??_i2c_wb^0,f,c
  1271  00789A  EF4A  F03C         	goto	u245
  1272  00789E  0E01               	movlw	1
  1273  0078A0  161D               	andwf	(??_i2c_wb+1)^0,f,c
  1274  0078A2  3A1D               	swapf	(??_i2c_wb+1)^0,f,c
  1275  0078A4  5082               	movf	130,w,c	;volatile
  1276  0078A6  181D               	xorwf	(??_i2c_wb+1)^0,w,c
  1277  0078A8  0BEF               	andlw	-17
  1278  0078AA  181D               	xorwf	(??_i2c_wb+1)^0,w,c
  1279  0078AC  6E82               	movwf	130,c	;volatile
  1280  0078AE                     
  1281                           ;i2c.c: 73: PORTCbits.RC3=1;
  1282  0078AE  8682               	bsf	130,3,c	;volatile
  1283  0078B0                     
  1284                           ;i2c.c: 74: delay();
  1285  0078B0  EC0A  F03C         	call	_delay	;wreg free
  1286  0078B4                     
  1287                           ;i2c.c: 75: PORTCbits.RC3=0;
  1288  0078B4  9682               	bcf	130,3,c	;volatile
  1289  0078B6  2A1F               	incf	i2c_wb@i^0,f,c
  1290  0078B8  0E07               	movlw	7
  1291  0078BA  641F               	cpfsgt	i2c_wb@i^0,c
  1292  0078BC  EF62  F03C         	goto	u251
  1293  0078C0  EF64  F03C         	goto	u250
  1294  0078C4                     u251:
  1295  0078C4  EF42  F03C         	goto	l1385
  1296  0078C8                     u250:
  1297  0078C8                     
  1298                           ;i2c.c: 76: };i2c.c: 77: PORTCbits.RC4=1;
  1299  0078C8  8882               	bsf	130,4,c	;volatile
  1300  0078CA                     
  1301                           ;i2c.c: 78: delay();
  1302  0078CA  EC0A  F03C         	call	_delay	;wreg free
  1303  0078CE                     
  1304                           ;i2c.c: 79: PORTCbits.RC3=1;
  1305  0078CE  8682               	bsf	130,3,c	;volatile
  1306                           
  1307                           ;i2c.c: 80: delay();
  1308  0078D0  EC0A  F03C         	call	_delay	;wreg free
  1309  0078D4                     
  1310                           ;i2c.c: 81: PORTCbits.RC3=0;
  1311  0078D4  9682               	bcf	130,3,c	;volatile
  1312  0078D6  0012               	return		;funcret
  1313  0078D8                     __end_of_i2c_wb:
  1314                           	callstack 0
  1315                           
  1316 ;; *************** function _i2c_stop *****************
  1317 ;; Defined at:
  1318 ;;		line 57 in file "i2c.c"
  1319 ;; Parameters:    Size  Location     Type
  1320 ;;		None
  1321 ;; Auto vars:     Size  Location     Type
  1322 ;;		None
  1323 ;; Return value:  Size  Location     Type
  1324 ;;                  1    wreg      void 
  1325 ;; Registers used:
  1326 ;;		cstack
  1327 ;; Tracked objects:
  1328 ;;		On entry : 0/0
  1329 ;;		On exit  : 0/0
  1330 ;;		Unchanged: 0/0
  1331 ;; Data sizes:     COMRAM   BANK0   BANK1   BANK2   BANK3   BANK4   BANK5
  1332 ;;      Params:         0       0       0       0       0       0       0
  1333 ;;      Locals:         0       0       0       0       0       0       0
  1334 ;;      Temps:          0       0       0       0       0       0       0
  1335 ;;      Totals:         0       0       0       0       0       0       0
  1336 ;;Total ram usage:        0 bytes
  1337 ;; Hardware stack levels used:    1
  1338 ;; Hardware stack levels required when called:    1
  1339 ;; This function calls:
  1340 ;;		_delay
  1341 ;; This function is called by:
  1342 ;;		_rtc_r
  1343 ;;		_e2pext_r
  1344 ;;		_e2pext_w
  1345 ;; This function uses a non-reentrant model
  1346 ;;
  1347                           
  1348                           	psect	text10
  1349  007804                     __ptext10:
  1350                           	callstack 0
  1351  007804                     _i2c_stop:
  1352                           	callstack 28
  1353  007804                     
  1354                           ;i2c.c: 59: PORTCbits.RC3=1;
  1355  007804  8682               	bsf	130,3,c	;volatile
  1356                           
  1357                           ;i2c.c: 60: PORTCbits.RC4=0;
  1358  007806  9882               	bcf	130,4,c	;volatile
  1359  007808                     
  1360                           ;i2c.c: 61: delay();
  1361  007808  EC0A  F03C         	call	_delay	;wreg free
  1362  00780C                     
  1363                           ;i2c.c: 62: PORTCbits.RC4=1;
  1364  00780C  8882               	bsf	130,4,c	;volatile
  1365                           
  1366                           ;i2c.c: 63: delay();
  1367  00780E  EC0A  F03C         	call	_delay	;wreg free
  1368  007812  0012               	return		;funcret
  1369  007814                     __end_of_i2c_stop:
  1370                           	callstack 0
  1371                           
  1372 ;; *************** function _i2c_start *****************
  1373 ;; Defined at:
  1374 ;;		line 48 in file "i2c.c"
  1375 ;; Parameters:    Size  Location     Type
  1376 ;;		None
  1377 ;; Auto vars:     Size  Location     Type
  1378 ;;		None
  1379 ;; Return value:  Size  Location     Type
  1380 ;;                  1    wreg      void 
  1381 ;; Registers used:
  1382 ;;		cstack
  1383 ;; Tracked objects:
  1384 ;;		On entry : 0/0
  1385 ;;		On exit  : 0/0
  1386 ;;		Unchanged: 0/0
  1387 ;; Data sizes:     COMRAM   BANK0   BANK1   BANK2   BANK3   BANK4   BANK5
  1388 ;;      Params:         0       0       0       0       0       0       0
  1389 ;;      Locals:         0       0       0       0       0       0       0
  1390 ;;      Temps:          0       0       0       0       0       0       0
  1391 ;;      Totals:         0       0       0       0       0       0       0
  1392 ;;Total ram usage:        0 bytes
  1393 ;; Hardware stack levels used:    1
  1394 ;; Hardware stack levels required when called:    1
  1395 ;; This function calls:
  1396 ;;		_delay
  1397 ;; This function is called by:
  1398 ;;		_main
  1399 ;;		_rtc_r
  1400 ;;		_e2pext_r
  1401 ;;		_e2pext_w
  1402 ;; This function uses a non-reentrant model
  1403 ;;
  1404                           
  1405                           	psect	text11
  1406  0077F4                     __ptext11:
  1407                           	callstack 0
  1408  0077F4                     _i2c_start:
  1409                           	callstack 28
  1410  0077F4                     
  1411                           ;i2c.c: 50: PORTCbits.RC3=1;
  1412  0077F4  8682               	bsf	130,3,c	;volatile
  1413                           
  1414                           ;i2c.c: 51: PORTCbits.RC4=1;
  1415  0077F6  8882               	bsf	130,4,c	;volatile
  1416  0077F8                     
  1417                           ;i2c.c: 52: delay();
  1418  0077F8  EC0A  F03C         	call	_delay	;wreg free
  1419  0077FC                     
  1420                           ;i2c.c: 53: PORTCbits.RC4=0;
  1421  0077FC  9882               	bcf	130,4,c	;volatile
  1422                           
  1423                           ;i2c.c: 54: delay();
  1424  0077FE  EC0A  F03C         	call	_delay	;wreg free
  1425  007802  0012               	return		;funcret
  1426  007804                     __end_of_i2c_start:
  1427                           	callstack 0
  1428                           
  1429 ;; *************** function _i2c_rb *****************
  1430 ;; Defined at:
  1431 ;;		line 84 in file "i2c.c"
  1432 ;; Parameters:    Size  Location     Type
  1433 ;;  ack             1    wreg     unsigned char 
  1434 ;; Auto vars:     Size  Location     Type
  1435 ;;  ack             1    2[COMRAM] unsigned char 
  1436 ;;  i               1    4[COMRAM] unsigned char 
  1437 ;;  ret             1    3[COMRAM] unsigned char 
  1438 ;; Return value:  Size  Location     Type
  1439 ;;                  1    wreg      unsigned char 
  1440 ;; Registers used:
  1441 ;;		wreg, status,2, status,0, cstack
  1442 ;; Tracked objects:
  1443 ;;		On entry : 0/0
  1444 ;;		On exit  : 0/0
  1445 ;;		Unchanged: 0/0
  1446 ;; Data sizes:     COMRAM   BANK0   BANK1   BANK2   BANK3   BANK4   BANK5
  1447 ;;      Params:         0       0       0       0       0       0       0
  1448 ;;      Locals:         3       0       0       0       0       0       0
  1449 ;;      Temps:          2       0       0       0       0       0       0
  1450 ;;      Totals:         5       0       0       0       0       0       0
  1451 ;;Total ram usage:        5 bytes
  1452 ;; Hardware stack levels used:    1
  1453 ;; Hardware stack levels required when called:    1
  1454 ;; This function calls:
  1455 ;;		_delay
  1456 ;; This function is called by:
  1457 ;;		_rtc_r
  1458 ;;		_e2pext_r
  1459 ;; This function uses a non-reentrant model
  1460 ;;
  1461                           
  1462                           	psect	text12
  1463  007940                     __ptext12:
  1464                           	callstack 0
  1465  007940                     _i2c_rb:
  1466                           	callstack 28
  1467                           
  1468                           ;incstack = 0
  1469                           ;i2c_rb@ack stored from wreg
  1470  007940  6E1E               	movwf	i2c_rb@ack^0,c
  1471  007942                     
  1472                           ;i2c.c: 86: char i;;i2c.c: 87: unsigned char ret=0;
  1473  007942  0E00               	movlw	0
  1474  007944  6E1F               	movwf	i2c_rb@ret^0,c
  1475  007946                     
  1476                           ;i2c.c: 89: PORTCbits.RC3=0;
  1477  007946  9682               	bcf	130,3,c	;volatile
  1478  007948                     
  1479                           ;i2c.c: 90: TRISCbits.TRISC4=1;
  1480  007948  8894               	bsf	148,4,c	;volatile
  1481  00794A                     
  1482                           ;i2c.c: 91: PORTCbits.RC4=1;
  1483  00794A  8882               	bsf	130,4,c	;volatile
  1484                           
  1485                           ;i2c.c: 92: for(i=0;i<8;i++)
  1486  00794C  0E00               	movlw	0
  1487  00794E  6E20               	movwf	i2c_rb@i^0,c
  1488  007950                     l26:
  1489                           
  1490                           ;i2c.c: 93: {;i2c.c: 94: PORTCbits.RC3=1;
  1491  007950  8682               	bsf	130,3,c	;volatile
  1492  007952                     
  1493                           ;i2c.c: 95: delay();
  1494  007952  EC0A  F03C         	call	_delay	;wreg free
  1495  007956                     
  1496                           ;i2c.c: 96: ret|=(PORTCbits.RC4<<(7-i));
  1497  007956  5020               	movf	i2c_rb@i^0,w,c
  1498  007958  0807               	sublw	7
  1499  00795A  6E1C               	movwf	??_i2c_rb^0,c
  1500  00795C  B882               	btfsc	130,4,c	;volatile
  1501  00795E  EFB3  F03C         	goto	u261
  1502  007962  EFB7  F03C         	goto	u260
  1503  007966                     u261:
  1504  007966  6A1D               	clrf	(??_i2c_rb+1)^0,c
  1505  007968  2A1D               	incf	(??_i2c_rb+1)^0,f,c
  1506  00796A  EFB8  F03C         	goto	u268
  1507  00796E                     u260:
  1508  00796E  6A1D               	clrf	(??_i2c_rb+1)^0,c
  1509  007970                     u268:
  1510  007970  2A1C               	incf	??_i2c_rb^0,f,c
  1511  007972  EFBD  F03C         	goto	u274
  1512  007976                     u275:
  1513  007976  90D8               	bcf	status,0,c
  1514  007978  361D               	rlcf	(??_i2c_rb+1)^0,f,c
  1515  00797A                     u274:
  1516  00797A  2E1C               	decfsz	??_i2c_rb^0,f,c
  1517  00797C  EFBB  F03C         	goto	u275
  1518  007980  501D               	movf	(??_i2c_rb+1)^0,w,c
  1519  007982  121F               	iorwf	i2c_rb@ret^0,f,c
  1520  007984                     
  1521                           ;i2c.c: 97: PORTCbits.RC3=0;
  1522  007984  9682               	bcf	130,3,c	;volatile
  1523  007986  2A20               	incf	i2c_rb@i^0,f,c
  1524  007988  0E07               	movlw	7
  1525  00798A  6420               	cpfsgt	i2c_rb@i^0,c
  1526  00798C  EFCA  F03C         	goto	u281
  1527  007990  EFCC  F03C         	goto	u280
  1528  007994                     u281:
  1529  007994  EFA8  F03C         	goto	l26
  1530  007998                     u280:
  1531  007998                     
  1532                           ;i2c.c: 98: };i2c.c: 99: TRISCbits.TRISC4=0;
  1533  007998  9894               	bcf	148,4,c	;volatile
  1534  00799A                     
  1535                           ;i2c.c: 100: if(ack)
  1536  00799A  501E               	movf	i2c_rb@ack^0,w,c
  1537  00799C  B4D8               	btfsc	status,2,c
  1538  00799E  EFD3  F03C         	goto	u291
  1539  0079A2  EFD5  F03C         	goto	u290
  1540  0079A6                     u291:
  1541  0079A6  EFD8  F03C         	goto	l28
  1542  0079AA                     u290:
  1543  0079AA                     
  1544                           ;i2c.c: 101: PORTCbits.RC4=0;
  1545  0079AA  9882               	bcf	130,4,c	;volatile
  1546  0079AC  EFD9  F03C         	goto	l1429
  1547  0079B0                     l28:
  1548                           
  1549                           ;i2c.c: 102: else;i2c.c: 103: PORTCbits.RC4=1;
  1550  0079B0  8882               	bsf	130,4,c	;volatile
  1551  0079B2                     l1429:
  1552                           
  1553                           ;i2c.c: 104: delay();
  1554  0079B2  EC0A  F03C         	call	_delay	;wreg free
  1555  0079B6                     
  1556                           ;i2c.c: 105: PORTCbits.RC3=1;
  1557  0079B6  8682               	bsf	130,3,c	;volatile
  1558                           
  1559                           ;i2c.c: 106: delay();
  1560  0079B8  EC0A  F03C         	call	_delay	;wreg free
  1561  0079BC                     
  1562                           ;i2c.c: 107: PORTCbits.RC3=0;
  1563  0079BC  9682               	bcf	130,3,c	;volatile
  1564  0079BE                     
  1565                           ;i2c.c: 109: return ret;
  1566  0079BE  501F               	movf	i2c_rb@ret^0,w,c
  1567  0079C0  0012               	return		;funcret
  1568  0079C2                     __end_of_i2c_rb:
  1569                           	callstack 0
  1570                           
  1571 ;; *************** function _delay *****************
  1572 ;; Defined at:
  1573 ;;		line 29 in file "i2c.c"
  1574 ;; Parameters:    Size  Location     Type
  1575 ;;		None
  1576 ;; Auto vars:     Size  Location     Type
  1577 ;;		None
  1578 ;; Return value:  Size  Location     Type
  1579 ;;                  1    wreg      void 
  1580 ;; Registers used:
  1581 ;;		None
  1582 ;; Tracked objects:
  1583 ;;		On entry : 0/0
  1584 ;;		On exit  : 0/0
  1585 ;;		Unchanged: 0/0
  1586 ;; Data sizes:     COMRAM   BANK0   BANK1   BANK2   BANK3   BANK4   BANK5
  1587 ;;      Params:         0       0       0       0       0       0       0
  1588 ;;      Locals:         0       0       0       0       0       0       0
  1589 ;;      Temps:          0       0       0       0       0       0       0
  1590 ;;      Totals:         0       0       0       0       0       0       0
  1591 ;;Total ram usage:        0 bytes
  1592 ;; Hardware stack levels used:    1
  1593 ;; This function calls:
  1594 ;;		Nothing
  1595 ;; This function is called by:
  1596 ;;		_i2c_start
  1597 ;;		_i2c_stop
  1598 ;;		_i2c_wb
  1599 ;;		_i2c_rb
  1600 ;; This function uses a non-reentrant model
  1601 ;;
  1602                           
  1603                           	psect	text13
  1604  007814                     __ptext13:
  1605                           	callstack 0
  1606  007814                     _delay:
  1607                           	callstack 28
  1608  007814                     
  1609                           ;i2c.c: 31: __nop();
  1610  007814  F000               	nop	
  1611                           
  1612                           ;i2c.c: 32: __nop();
  1613  007816  F000               	nop	
  1614                           
  1615                           ;i2c.c: 33: __nop();
  1616  007818  F000               	nop	
  1617                           
  1618                           ;i2c.c: 34: __nop();
  1619  00781A  F000               	nop	
  1620                           
  1621                           ;i2c.c: 35: __nop();
  1622  00781C  F000               	nop	
  1623                           
  1624                           ;i2c.c: 36: __nop();
  1625  00781E  F000               	nop	
  1626                           
  1627                           ;i2c.c: 37: __nop();
  1628  007820  F000               	nop	
  1629                           
  1630                           ;i2c.c: 38: __nop();
  1631  007822  F000               	nop	
  1632  007824  0012               	return		;funcret
  1633  007826                     __end_of_delay:
  1634                           	callstack 0
  1635                           
  1636 ;; *************** function _Lcd_Out *****************
  1637 ;; Defined at:
  1638 ;;		line 96 in file "flexlcd.h"
  1639 ;; Parameters:    Size  Location     Type
  1640 ;;  y               1    wreg     unsigned char 
  1641 ;;  x               1    3[COMRAM] unsigned char 
  1642 ;;  buffer          2    4[COMRAM] PTR const unsigned char 
  1643 ;;		 -> time(10), date(10), 
  1644 ;; Auto vars:     Size  Location     Type
  1645 ;;  y               1    6[COMRAM] unsigned char 
  1646 ;;  data            1    7[COMRAM] unsigned char 
  1647 ;; Return value:  Size  Location     Type
  1648 ;;                  1    wreg      void 
  1649 ;; Registers used:
  1650 ;;		wreg, fsr2l, fsr2h, status,2, status,0, cstack
  1651 ;; Tracked objects:
  1652 ;;		On entry : 0/0
  1653 ;;		On exit  : 0/0
  1654 ;;		Unchanged: 0/0
  1655 ;; Data sizes:     COMRAM   BANK0   BANK1   BANK2   BANK3   BANK4   BANK5
  1656 ;;      Params:         3       0       0       0       0       0       0
  1657 ;;      Locals:         2       0       0       0       0       0       0
  1658 ;;      Temps:          0       0       0       0       0       0       0
  1659 ;;      Totals:         5       0       0       0       0       0       0
  1660 ;;Total ram usage:        5 bytes
  1661 ;; Hardware stack levels used:    1
  1662 ;; Hardware stack levels required when called:    1
  1663 ;; This function calls:
  1664 ;;		_Lcd_Chr_CP
  1665 ;;		_Lcd_Cmd
  1666 ;; This function is called by:
  1667 ;;		_main
  1668 ;; This function uses a non-reentrant model
  1669 ;;
  1670                           
  1671                           	psect	text14
  1672  007A46                     __ptext14:
  1673                           	callstack 0
  1674  007A46                     _Lcd_Out:
  1675                           	callstack 29
  1676                           
  1677                           ;incstack = 0
  1678                           ;Lcd_Out@y stored from wreg
  1679  007A46  6E22               	movwf	Lcd_Out@y^0,c
  1680  007A48                     
  1681                           ;flexlcd.h: 98: unsigned char data;;flexlcd.h: 99: switch (y)
  1682  007A48  EF3A  F03D         	goto	l1589
  1683  007A4C                     l1579:
  1684  007A4C  501F               	movf	Lcd_Out@x^0,w,c
  1685  007A4E  0F80               	addlw	128
  1686  007A50  6E23               	movwf	Lcd_Out@data^0,c
  1687  007A52  EF4D  F03D         	goto	l1591
  1688  007A56                     l1581:
  1689  007A56  501F               	movf	Lcd_Out@x^0,w,c
  1690  007A58  0FC0               	addlw	192
  1691  007A5A  6E23               	movwf	Lcd_Out@data^0,c
  1692  007A5C  EF4D  F03D         	goto	l1591
  1693  007A60                     l1583:
  1694  007A60  501F               	movf	Lcd_Out@x^0,w,c
  1695  007A62  0F94               	addlw	148
  1696  007A64  6E23               	movwf	Lcd_Out@data^0,c
  1697  007A66  EF4D  F03D         	goto	l1591
  1698  007A6A                     l1585:
  1699  007A6A  501F               	movf	Lcd_Out@x^0,w,c
  1700  007A6C  0FD4               	addlw	212
  1701  007A6E  6E23               	movwf	Lcd_Out@data^0,c
  1702  007A70  EF4D  F03D         	goto	l1591
  1703  007A74                     l1589:
  1704  007A74  5022               	movf	Lcd_Out@y^0,w,c
  1705                           
  1706                           ; Switch size 1, requested type "simple"
  1707                           ; Number of cases is 4, Range of values is 1 to 4
  1708                           ; switch strategies available:
  1709                           ; Name         Instructions Cycles
  1710                           ; simple_byte           13     7 (average)
  1711                           ;	Chosen strategy is simple_byte
  1712  007A76  0A01               	xorlw	1	; case 1
  1713  007A78  B4D8               	btfsc	status,2,c
  1714  007A7A  EF26  F03D         	goto	l1579
  1715  007A7E  0A03               	xorlw	3	; case 2
  1716  007A80  B4D8               	btfsc	status,2,c
  1717  007A82  EF2B  F03D         	goto	l1581
  1718  007A86  0A01               	xorlw	1	; case 3
  1719  007A88  B4D8               	btfsc	status,2,c
  1720  007A8A  EF30  F03D         	goto	l1583
  1721  007A8E  0A07               	xorlw	7	; case 4
  1722  007A90  B4D8               	btfsc	status,2,c
  1723  007A92  EF35  F03D         	goto	l1585
  1724  007A96  EF4D  F03D         	goto	l1591
  1725  007A9A                     l1591:
  1726                           
  1727                           ;flexlcd.h: 107: Lcd_Cmd(data);
  1728  007A9A  5023               	movf	Lcd_Out@data^0,w,c
  1729  007A9C  ECD0  F03E         	call	_Lcd_Cmd
  1730                           
  1731                           ;flexlcd.h: 108: while(*buffer)
  1732  007AA0  EF5B  F03D         	goto	l1597
  1733  007AA4                     l1593:
  1734                           
  1735                           ;flexlcd.h: 109: {;flexlcd.h: 110: Lcd_Chr_CP(*buffer);
  1736  007AA4  C020  FFD9         	movff	Lcd_Out@buffer,fsr2l
  1737  007AA8  C021  FFDA         	movff	Lcd_Out@buffer+1,fsr2h
  1738  007AAC  50DF               	movf	indf2,w,c
  1739  007AAE  EC66  F03F         	call	_Lcd_Chr_CP
  1740  007AB2                     
  1741                           ;flexlcd.h: 111: buffer++;
  1742  007AB2  4A20               	infsnz	Lcd_Out@buffer^0,f,c
  1743  007AB4  2A21               	incf	(Lcd_Out@buffer+1)^0,f,c
  1744  007AB6                     l1597:
  1745  007AB6  C020  FFD9         	movff	Lcd_Out@buffer,fsr2l
  1746  007ABA  C021  FFDA         	movff	Lcd_Out@buffer+1,fsr2h
  1747  007ABE  50DF               	movf	indf2,w,c
  1748  007AC0  A4D8               	btfss	status,2,c
  1749  007AC2  EF65  F03D         	goto	u391
  1750  007AC6  EF67  F03D         	goto	u390
  1751  007ACA                     u391:
  1752  007ACA  EF52  F03D         	goto	l1593
  1753  007ACE                     u390:
  1754  007ACE  0012               	return		;funcret
  1755  007AD0                     __end_of_Lcd_Out:
  1756                           	callstack 0
  1757                           
  1758 ;; *************** function _Lcd_Chr_CP *****************
  1759 ;; Defined at:
  1760 ;;		line 138 in file "flexlcd.h"
  1761 ;; Parameters:    Size  Location     Type
  1762 ;;  data            1    wreg     unsigned char 
  1763 ;; Auto vars:     Size  Location     Type
  1764 ;;  data            1    2[COMRAM] unsigned char 
  1765 ;; Return value:  Size  Location     Type
  1766 ;;                  1    wreg      void 
  1767 ;; Registers used:
  1768 ;;		wreg, status,2, status,0
  1769 ;; Tracked objects:
  1770 ;;		On entry : 0/0
  1771 ;;		On exit  : 0/0
  1772 ;;		Unchanged: 0/0
  1773 ;; Data sizes:     COMRAM   BANK0   BANK1   BANK2   BANK3   BANK4   BANK5
  1774 ;;      Params:         0       0       0       0       0       0       0
  1775 ;;      Locals:         1       0       0       0       0       0       0
  1776 ;;      Temps:          2       0       0       0       0       0       0
  1777 ;;      Totals:         3       0       0       0       0       0       0
  1778 ;;Total ram usage:        3 bytes
  1779 ;; Hardware stack levels used:    1
  1780 ;; This function calls:
  1781 ;;		Nothing
  1782 ;; This function is called by:
  1783 ;;		_Lcd_Out
  1784 ;;		_Lcd_Out2
  1785 ;; This function uses a non-reentrant model
  1786 ;;
  1787                           
  1788                           	psect	text15
  1789  007ECC                     __ptext15:
  1790                           	callstack 0
  1791  007ECC                     _Lcd_Chr_CP:
  1792                           	callstack 29
  1793                           
  1794                           ;incstack = 0
  1795                           ;Lcd_Chr_CP@data stored from wreg
  1796  007ECC  6E1E               	movwf	Lcd_Chr_CP@data^0,c
  1797  007ECE                     
  1798                           ;flexlcd.h: 139: PORTEbits.RE1 = 0; PORTEbits.RE2 = 1;
  1799  007ECE  9284               	bcf	132,1,c	;volatile
  1800  007ED0  8484               	bsf	132,2,c	;volatile
  1801  007ED2                     
  1802                           ;flexlcd.h: 140: PORTDbits.RD7 = (data & 0b10000000)>>7; PORTDbits.RD6 = (data & 0b01000
      +                          000)>>6;
  1803  007ED2  6A1C               	clrf	??_Lcd_Chr_CP^0,c
  1804  007ED4  AE1E               	btfss	Lcd_Chr_CP@data^0,7,c
  1805  007ED6  D001               	bra	u335
  1806  007ED8  2A1C               	incf	??_Lcd_Chr_CP^0,f,c
  1807  007EDA                     u335:
  1808  007EDA  0E01               	movlw	1
  1809  007EDC  161C               	andwf	??_Lcd_Chr_CP^0,f,c
  1810  007EDE  321C               	rrcf	??_Lcd_Chr_CP^0,f,c
  1811  007EE0  321C               	rrcf	??_Lcd_Chr_CP^0,f,c
  1812  007EE2  5083               	movf	131,w,c	;volatile
  1813  007EE4  181C               	xorwf	??_Lcd_Chr_CP^0,w,c
  1814  007EE6  0B7F               	andlw	-129
  1815  007EE8  181C               	xorwf	??_Lcd_Chr_CP^0,w,c
  1816  007EEA  6E83               	movwf	131,c	;volatile
  1817  007EEC  C01E  F01C         	movff	Lcd_Chr_CP@data,??_Lcd_Chr_CP
  1818  007EF0  0E06               	movlw	6
  1819  007EF2  6E1D               	movwf	(??_Lcd_Chr_CP+1)^0,c
  1820  007EF4                     u345:
  1821  007EF4  90D8               	bcf	status,0,c
  1822  007EF6  321C               	rrcf	??_Lcd_Chr_CP^0,f,c
  1823  007EF8  2E1D               	decfsz	(??_Lcd_Chr_CP+1)^0,f,c
  1824  007EFA  EF7A  F03F         	goto	u345
  1825  007EFE  0E01               	movlw	1
  1826  007F00  161C               	andwf	??_Lcd_Chr_CP^0,f,c
  1827  007F02  3A1C               	swapf	??_Lcd_Chr_CP^0,f,c
  1828  007F04  461C               	rlncf	??_Lcd_Chr_CP^0,f,c
  1829  007F06  461C               	rlncf	??_Lcd_Chr_CP^0,f,c
  1830  007F08  5083               	movf	131,w,c	;volatile
  1831  007F0A  181C               	xorwf	??_Lcd_Chr_CP^0,w,c
  1832  007F0C  0BBF               	andlw	-65
  1833  007F0E  181C               	xorwf	??_Lcd_Chr_CP^0,w,c
  1834  007F10  6E83               	movwf	131,c	;volatile
  1835                           
  1836                           ;flexlcd.h: 141: PORTDbits.RD5 = (data & 0b00100000)>>5; PORTDbits.RD4 = (data & 0b00010
      +                          000)>>4;
  1837  007F12  C01E  F01C         	movff	Lcd_Chr_CP@data,??_Lcd_Chr_CP
  1838  007F16  0E05               	movlw	5
  1839  007F18  6E1D               	movwf	(??_Lcd_Chr_CP+1)^0,c
  1840  007F1A                     u355:
  1841  007F1A  90D8               	bcf	status,0,c
  1842  007F1C  321C               	rrcf	??_Lcd_Chr_CP^0,f,c
  1843  007F1E  2E1D               	decfsz	(??_Lcd_Chr_CP+1)^0,f,c
  1844  007F20  EF8D  F03F         	goto	u355
  1845  007F24  0E01               	movlw	1
  1846  007F26  161C               	andwf	??_Lcd_Chr_CP^0,f,c
  1847  007F28  3A1C               	swapf	??_Lcd_Chr_CP^0,f,c
  1848  007F2A  461C               	rlncf	??_Lcd_Chr_CP^0,f,c
  1849  007F2C  5083               	movf	131,w,c	;volatile
  1850  007F2E  181C               	xorwf	??_Lcd_Chr_CP^0,w,c
  1851  007F30  0BDF               	andlw	-33
  1852  007F32  181C               	xorwf	??_Lcd_Chr_CP^0,w,c
  1853  007F34  6E83               	movwf	131,c	;volatile
  1854  007F36  C01E  F01C         	movff	Lcd_Chr_CP@data,??_Lcd_Chr_CP
  1855  007F3A  3A1C               	swapf	??_Lcd_Chr_CP^0,f,c
  1856  007F3C  0E0F               	movlw	15
  1857  007F3E  161C               	andwf	??_Lcd_Chr_CP^0,f,c
  1858  007F40  0E01               	movlw	1
  1859  007F42  161C               	andwf	??_Lcd_Chr_CP^0,f,c
  1860  007F44  3A1C               	swapf	??_Lcd_Chr_CP^0,f,c
  1861  007F46  5083               	movf	131,w,c	;volatile
  1862  007F48  181C               	xorwf	??_Lcd_Chr_CP^0,w,c
  1863  007F4A  0BEF               	andlw	-17
  1864  007F4C  181C               	xorwf	??_Lcd_Chr_CP^0,w,c
  1865  007F4E  6E83               	movwf	131,c	;volatile
  1866  007F50                     
  1867                           ;flexlcd.h: 142: _delay(10);
  1868  007F50  0E03               	movlw	3
  1869  007F52                     u477:
  1870  007F52  2EE8               	decfsz	wreg,f,c
  1871  007F54  D7FE               	bra	u477
  1872  007F56  F000               	nop	
  1873  007F58                     
  1874                           ;flexlcd.h: 143: PORTEbits.RE1 = 1; _delay((unsigned long)((5)*(8000000/4000000.0))); PO
      +                          RTEbits.RE1 = 0;
  1875  007F58  8284               	bsf	132,1,c	;volatile
  1876  007F5A  0E03               	movlw	3
  1877  007F5C                     u487:
  1878  007F5C  2EE8               	decfsz	wreg,f,c
  1879  007F5E  D7FE               	bra	u487
  1880  007F60  F000               	nop	
  1881  007F62  9284               	bcf	132,1,c	;volatile
  1882                           
  1883                           ;flexlcd.h: 144: PORTDbits.RD7 = (data & 0b00001000)>>3; PORTDbits.RD6 = (data & 0b00000
      +                          100)>>2;
  1884  007F64  C01E  F01C         	movff	Lcd_Chr_CP@data,??_Lcd_Chr_CP
  1885  007F68  90D8               	bcf	status,0,c
  1886  007F6A  321C               	rrcf	??_Lcd_Chr_CP^0,f,c
  1887  007F6C  90D8               	bcf	status,0,c
  1888  007F6E  321C               	rrcf	??_Lcd_Chr_CP^0,f,c
  1889  007F70  90D8               	bcf	status,0,c
  1890  007F72  321C               	rrcf	??_Lcd_Chr_CP^0,f,c
  1891  007F74  0E01               	movlw	1
  1892  007F76  161C               	andwf	??_Lcd_Chr_CP^0,f,c
  1893  007F78  321C               	rrcf	??_Lcd_Chr_CP^0,f,c
  1894  007F7A  321C               	rrcf	??_Lcd_Chr_CP^0,f,c
  1895  007F7C  5083               	movf	131,w,c	;volatile
  1896  007F7E  181C               	xorwf	??_Lcd_Chr_CP^0,w,c
  1897  007F80  0B7F               	andlw	-129
  1898  007F82  181C               	xorwf	??_Lcd_Chr_CP^0,w,c
  1899  007F84  6E83               	movwf	131,c	;volatile
  1900  007F86  C01E  F01C         	movff	Lcd_Chr_CP@data,??_Lcd_Chr_CP
  1901  007F8A  90D8               	bcf	status,0,c
  1902  007F8C  321C               	rrcf	??_Lcd_Chr_CP^0,f,c
  1903  007F8E  90D8               	bcf	status,0,c
  1904  007F90  321C               	rrcf	??_Lcd_Chr_CP^0,f,c
  1905  007F92  0E01               	movlw	1
  1906  007F94  161C               	andwf	??_Lcd_Chr_CP^0,f,c
  1907  007F96  3A1C               	swapf	??_Lcd_Chr_CP^0,f,c
  1908  007F98  461C               	rlncf	??_Lcd_Chr_CP^0,f,c
  1909  007F9A  461C               	rlncf	??_Lcd_Chr_CP^0,f,c
  1910  007F9C  5083               	movf	131,w,c	;volatile
  1911  007F9E  181C               	xorwf	??_Lcd_Chr_CP^0,w,c
  1912  007FA0  0BBF               	andlw	-65
  1913  007FA2  181C               	xorwf	??_Lcd_Chr_CP^0,w,c
  1914  007FA4  6E83               	movwf	131,c	;volatile
  1915                           
  1916                           ;flexlcd.h: 145: PORTDbits.RD5 = (data & 0b00000010)>>1; PORTDbits.RD4 = (data & 0b00000
      +                          001);
  1917  007FA6  C01E  F01C         	movff	Lcd_Chr_CP@data,??_Lcd_Chr_CP
  1918  007FAA  90D8               	bcf	status,0,c
  1919  007FAC  321C               	rrcf	??_Lcd_Chr_CP^0,f,c
  1920  007FAE  0E01               	movlw	1
  1921  007FB0  161C               	andwf	??_Lcd_Chr_CP^0,f,c
  1922  007FB2  3A1C               	swapf	??_Lcd_Chr_CP^0,f,c
  1923  007FB4  461C               	rlncf	??_Lcd_Chr_CP^0,f,c
  1924  007FB6  5083               	movf	131,w,c	;volatile
  1925  007FB8  181C               	xorwf	??_Lcd_Chr_CP^0,w,c
  1926  007FBA  0BDF               	andlw	-33
  1927  007FBC  181C               	xorwf	??_Lcd_Chr_CP^0,w,c
  1928  007FBE  6E83               	movwf	131,c	;volatile
  1929  007FC0  C01E  F01C         	movff	Lcd_Chr_CP@data,??_Lcd_Chr_CP
  1930  007FC4  0E01               	movlw	1
  1931  007FC6  161C               	andwf	??_Lcd_Chr_CP^0,f,c
  1932  007FC8  3A1C               	swapf	??_Lcd_Chr_CP^0,f,c
  1933  007FCA  5083               	movf	131,w,c	;volatile
  1934  007FCC  181C               	xorwf	??_Lcd_Chr_CP^0,w,c
  1935  007FCE  0BEF               	andlw	-17
  1936  007FD0  181C               	xorwf	??_Lcd_Chr_CP^0,w,c
  1937  007FD2  6E83               	movwf	131,c	;volatile
  1938  007FD4                     
  1939                           ;flexlcd.h: 146: _delay(10);
  1940  007FD4  0E03               	movlw	3
  1941  007FD6                     u497:
  1942  007FD6  2EE8               	decfsz	wreg,f,c
  1943  007FD8  D7FE               	bra	u497
  1944  007FDA  F000               	nop	
  1945  007FDC                     
  1946                           ;flexlcd.h: 147: PORTEbits.RE1 = 1; _delay((unsigned long)((5)*(8000000/4000000.0))); PO
      +                          RTEbits.RE1 = 0;
  1947  007FDC  8284               	bsf	132,1,c	;volatile
  1948  007FDE  0E03               	movlw	3
  1949  007FE0                     u507:
  1950  007FE0  2EE8               	decfsz	wreg,f,c
  1951  007FE2  D7FE               	bra	u507
  1952  007FE4  F000               	nop	
  1953  007FE6  9284               	bcf	132,1,c	;volatile
  1954  007FE8                     
  1955                           ;flexlcd.h: 148: _delay((unsigned long)((5)*(8000000/4000000.0))); _delay((unsigned long
      +                          )((5500)*(8000000/4000000.0)));
  1956  007FE8  0E03               	movlw	3
  1957  007FEA                     u517:
  1958  007FEA  2EE8               	decfsz	wreg,f,c
  1959  007FEC  D7FE               	bra	u517
  1960  007FEE  F000               	nop	
  1961  007FF0  0E0F               	movlw	15
  1962  007FF2  6E1C               	movwf	??_Lcd_Chr_CP^0,c
  1963  007FF4  0E48               	movlw	72
  1964  007FF6                     u527:
  1965  007FF6  2EE8               	decfsz	wreg,f,c
  1966  007FF8  D7FE               	bra	u527
  1967  007FFA  2E1C               	decfsz	??_Lcd_Chr_CP^0,f,c
  1968  007FFC  D7FC               	bra	u527
  1969  007FFE  0012               	return		;funcret
  1970  008000                     __end_of_Lcd_Chr_CP:
  1971                           	callstack 0
  1972                           
  1973 ;; *************** function _Lcd_Init *****************
  1974 ;; Defined at:
  1975 ;;		line 54 in file "flexlcd.h"
  1976 ;; Parameters:    Size  Location     Type
  1977 ;;		None
  1978 ;; Auto vars:     Size  Location     Type
  1979 ;;  data            1    4[COMRAM] unsigned char 
  1980 ;; Return value:  Size  Location     Type
  1981 ;;                  1    wreg      void 
  1982 ;; Registers used:
  1983 ;;		wreg, status,2, status,0, cstack
  1984 ;; Tracked objects:
  1985 ;;		On entry : 0/0
  1986 ;;		On exit  : 0/0
  1987 ;;		Unchanged: 0/0
  1988 ;; Data sizes:     COMRAM   BANK0   BANK1   BANK2   BANK3   BANK4   BANK5
  1989 ;;      Params:         0       0       0       0       0       0       0
  1990 ;;      Locals:         1       0       0       0       0       0       0
  1991 ;;      Temps:          1       0       0       0       0       0       0
  1992 ;;      Totals:         2       0       0       0       0       0       0
  1993 ;;Total ram usage:        2 bytes
  1994 ;; Hardware stack levels used:    1
  1995 ;; Hardware stack levels required when called:    1
  1996 ;; This function calls:
  1997 ;;		_Lcd_Cmd
  1998 ;; This function is called by:
  1999 ;;		_main
  2000 ;; This function uses a non-reentrant model
  2001 ;;
  2002                           
  2003                           	psect	text16
  2004  007C90                     __ptext16:
  2005                           	callstack 0
  2006  007C90                     _Lcd_Init:
  2007                           	callstack 29
  2008  007C90                     
  2009                           ;flexlcd.h: 55: unsigned char data;;flexlcd.h: 56: TRISDbits.TRISD7 = 0;
  2010  007C90  9E95               	bcf	149,7,c	;volatile
  2011                           
  2012                           ;flexlcd.h: 57: TRISDbits.TRISD6 = 0;
  2013  007C92  9C95               	bcf	149,6,c	;volatile
  2014                           
  2015                           ;flexlcd.h: 58: TRISDbits.TRISD5 = 0;
  2016  007C94  9A95               	bcf	149,5,c	;volatile
  2017                           
  2018                           ;flexlcd.h: 59: TRISDbits.TRISD4 = 0;
  2019  007C96  9895               	bcf	149,4,c	;volatile
  2020                           
  2021                           ;flexlcd.h: 60: TRISEbits.TRISE2 = 0;
  2022  007C98  9496               	bcf	150,2,c	;volatile
  2023                           
  2024                           ;flexlcd.h: 61: TRISEbits.TRISE1 = 0;
  2025  007C9A  9296               	bcf	150,1,c	;volatile
  2026                           
  2027                           ;flexlcd.h: 62: PORTDbits.RD7 = 0;
  2028  007C9C  9E83               	bcf	131,7,c	;volatile
  2029                           
  2030                           ;flexlcd.h: 63: PORTDbits.RD6 = 0;
  2031  007C9E  9C83               	bcf	131,6,c	;volatile
  2032                           
  2033                           ;flexlcd.h: 64: PORTDbits.RD5 = 0;
  2034  007CA0  9A83               	bcf	131,5,c	;volatile
  2035                           
  2036                           ;flexlcd.h: 65: PORTDbits.RD4 = 0;
  2037  007CA2  9883               	bcf	131,4,c	;volatile
  2038                           
  2039                           ;flexlcd.h: 66: PORTEbits.RE1 = 0;
  2040  007CA4  9284               	bcf	132,1,c	;volatile
  2041                           
  2042                           ;flexlcd.h: 67: PORTEbits.RE2 = 0;
  2043  007CA6  9484               	bcf	132,2,c	;volatile
  2044  007CA8                     
  2045                           ;flexlcd.h: 68: _delay((unsigned long)((5500)*(8000000/4000000.0)));
  2046  007CA8  0E0F               	movlw	15
  2047  007CAA  6E1F               	movwf	??_Lcd_Init^0,c
  2048  007CAC  0E48               	movlw	72
  2049  007CAE                     u537:
  2050  007CAE  2EE8               	decfsz	wreg,f,c
  2051  007CB0  D7FE               	bra	u537
  2052  007CB2  2E1F               	decfsz	??_Lcd_Init^0,f,c
  2053  007CB4  D7FC               	bra	u537
  2054                           
  2055                           ;flexlcd.h: 69: _delay((unsigned long)((5500)*(8000000/4000000.0)));
  2056  007CB6  0E0F               	movlw	15
  2057  007CB8  6E1F               	movwf	??_Lcd_Init^0,c
  2058  007CBA  0E48               	movlw	72
  2059  007CBC                     u547:
  2060  007CBC  2EE8               	decfsz	wreg,f,c
  2061  007CBE  D7FE               	bra	u547
  2062  007CC0  2E1F               	decfsz	??_Lcd_Init^0,f,c
  2063  007CC2  D7FC               	bra	u547
  2064                           
  2065                           ;flexlcd.h: 70: _delay((unsigned long)((5500)*(8000000/4000000.0)));
  2066  007CC4  0E0F               	movlw	15
  2067  007CC6  6E1F               	movwf	??_Lcd_Init^0,c
  2068  007CC8  0E48               	movlw	72
  2069  007CCA                     u557:
  2070  007CCA  2EE8               	decfsz	wreg,f,c
  2071  007CCC  D7FE               	bra	u557
  2072  007CCE  2E1F               	decfsz	??_Lcd_Init^0,f,c
  2073  007CD0  D7FC               	bra	u557
  2074                           
  2075                           ;flexlcd.h: 71: _delay((unsigned long)((5500)*(8000000/4000000.0)));
  2076  007CD2  0E0F               	movlw	15
  2077  007CD4  6E1F               	movwf	??_Lcd_Init^0,c
  2078  007CD6  0E48               	movlw	72
  2079  007CD8                     u567:
  2080  007CD8  2EE8               	decfsz	wreg,f,c
  2081  007CDA  D7FE               	bra	u567
  2082  007CDC  2E1F               	decfsz	??_Lcd_Init^0,f,c
  2083  007CDE  D7FC               	bra	u567
  2084                           
  2085                           ;flexlcd.h: 72: _delay((unsigned long)((5500)*(8000000/4000000.0)));
  2086  007CE0  0E0F               	movlw	15
  2087  007CE2  6E1F               	movwf	??_Lcd_Init^0,c
  2088  007CE4  0E48               	movlw	72
  2089  007CE6                     u577:
  2090  007CE6  2EE8               	decfsz	wreg,f,c
  2091  007CE8  D7FE               	bra	u577
  2092  007CEA  2E1F               	decfsz	??_Lcd_Init^0,f,c
  2093  007CEC  D7FC               	bra	u577
  2094                           
  2095                           ;flexlcd.h: 73: _delay((unsigned long)((5500)*(8000000/4000000.0)));
  2096  007CEE  0E0F               	movlw	15
  2097  007CF0  6E1F               	movwf	??_Lcd_Init^0,c
  2098  007CF2  0E48               	movlw	72
  2099  007CF4                     u587:
  2100  007CF4  2EE8               	decfsz	wreg,f,c
  2101  007CF6  D7FE               	bra	u587
  2102  007CF8  2E1F               	decfsz	??_Lcd_Init^0,f,c
  2103  007CFA  D7FC               	bra	u587
  2104  007CFC                     
  2105                           ;flexlcd.h: 74: for(data = 1; data < 4; data ++)
  2106  007CFC  0E01               	movlw	1
  2107  007CFE  6E20               	movwf	Lcd_Init@data^0,c
  2108  007D00                     l109:
  2109                           
  2110                           ;flexlcd.h: 75: {;flexlcd.h: 76: PORTDbits.RD7 = 0; PORTDbits.RD6 = 0; PORTDbits.RD5 = 1
      +                          ; PORTDbits.RD4 = 1; PORTEbits.RE1 = 0;
  2111  007D00  9E83               	bcf	131,7,c	;volatile
  2112  007D02  9C83               	bcf	131,6,c	;volatile
  2113  007D04  8A83               	bsf	131,5,c	;volatile
  2114  007D06  8883               	bsf	131,4,c	;volatile
  2115  007D08  9284               	bcf	132,1,c	;volatile
  2116                           
  2117                           ;flexlcd.h: 77: PORTEbits.RE2 = 0; PORTDbits.RD7 = 0; PORTDbits.RD6 = 0; PORTDbits.RD5 =
      +                           1; PORTDbits.RD4 = 1;
  2118  007D0A  9484               	bcf	132,2,c	;volatile
  2119  007D0C  9E83               	bcf	131,7,c	;volatile
  2120  007D0E  9C83               	bcf	131,6,c	;volatile
  2121  007D10  8A83               	bsf	131,5,c	;volatile
  2122  007D12  8883               	bsf	131,4,c	;volatile
  2123                           
  2124                           ;flexlcd.h: 78: PORTEbits.RE1 = 1; PORTEbits.RE2 = 0;
  2125  007D14  8284               	bsf	132,1,c	;volatile
  2126  007D16  9484               	bcf	132,2,c	;volatile
  2127  007D18                     
  2128                           ;flexlcd.h: 79: _delay((unsigned long)((5)*(8000000/4000000.0)));
  2129  007D18  0E03               	movlw	3
  2130  007D1A                     u597:
  2131  007D1A  2EE8               	decfsz	wreg,f,c
  2132  007D1C  D7FE               	bra	u597
  2133  007D1E  F000               	nop	
  2134  007D20                     
  2135                           ;flexlcd.h: 80: PORTDbits.RD7 = 0; PORTDbits.RD6 = 0; PORTDbits.RD5 = 1; PORTDbits.RD4 =
      +                           1; PORTEbits.RE1 = 0;
  2136  007D20  9E83               	bcf	131,7,c	;volatile
  2137  007D22  9C83               	bcf	131,6,c	;volatile
  2138  007D24  8A83               	bsf	131,5,c	;volatile
  2139  007D26  8883               	bsf	131,4,c	;volatile
  2140  007D28  9284               	bcf	132,1,c	;volatile
  2141  007D2A                     
  2142                           ;flexlcd.h: 81: PORTEbits.RE2 = 0;
  2143  007D2A  9484               	bcf	132,2,c	;volatile
  2144                           
  2145                           ;flexlcd.h: 82: _delay((unsigned long)((5500)*(8000000/4000000.0)));
  2146  007D2C  0E0F               	movlw	15
  2147  007D2E  6E1F               	movwf	??_Lcd_Init^0,c
  2148  007D30  0E48               	movlw	72
  2149  007D32                     u607:
  2150  007D32  2EE8               	decfsz	wreg,f,c
  2151  007D34  D7FE               	bra	u607
  2152  007D36  2E1F               	decfsz	??_Lcd_Init^0,f,c
  2153  007D38  D7FC               	bra	u607
  2154  007D3A  2A20               	incf	Lcd_Init@data^0,f,c
  2155  007D3C  0E03               	movlw	3
  2156  007D3E  6420               	cpfsgt	Lcd_Init@data^0,c
  2157  007D40  EFA4  F03E         	goto	u381
  2158  007D44  EFA6  F03E         	goto	u380
  2159  007D48                     u381:
  2160  007D48  EF80  F03E         	goto	l109
  2161  007D4C                     u380:
  2162  007D4C                     
  2163                           ;flexlcd.h: 83: };flexlcd.h: 84: PORTDbits.RD7 = 0; PORTDbits.RD6 = 0; PORTDbits.RD5 = 1
      +                          ; PORTDbits.RD4 = 0; PORTEbits.RE1 = 0; PORTEbits.RE2 = 0;
  2164  007D4C  9E83               	bcf	131,7,c	;volatile
  2165  007D4E  9C83               	bcf	131,6,c	;volatile
  2166  007D50  8A83               	bsf	131,5,c	;volatile
  2167  007D52  9883               	bcf	131,4,c	;volatile
  2168  007D54  9284               	bcf	132,1,c	;volatile
  2169  007D56  9484               	bcf	132,2,c	;volatile
  2170                           
  2171                           ;flexlcd.h: 85: PORTDbits.RD7 = 0; PORTDbits.RD6 = 0; PORTDbits.RD5 = 1; PORTDbits.RD4 =
      +                           0; PORTEbits.RE1 = 1; PORTEbits.RE2 = 0;
  2172  007D58  9E83               	bcf	131,7,c	;volatile
  2173  007D5A  9C83               	bcf	131,6,c	;volatile
  2174  007D5C  8A83               	bsf	131,5,c	;volatile
  2175  007D5E  9883               	bcf	131,4,c	;volatile
  2176  007D60  8284               	bsf	132,1,c	;volatile
  2177  007D62  9484               	bcf	132,2,c	;volatile
  2178  007D64                     
  2179                           ;flexlcd.h: 86: _delay((unsigned long)((5)*(8000000/4000000.0)));
  2180  007D64  0E03               	movlw	3
  2181  007D66                     u617:
  2182  007D66  2EE8               	decfsz	wreg,f,c
  2183  007D68  D7FE               	bra	u617
  2184  007D6A  F000               	nop	
  2185  007D6C                     
  2186                           ;flexlcd.h: 87: PORTDbits.RD7 = 0; PORTDbits.RD6 = 0; PORTDbits.RD5 = 1; PORTDbits.RD4 =
      +                           0; PORTEbits.RE1 = 0; PORTEbits.RE2 = 0;
  2187  007D6C  9E83               	bcf	131,7,c	;volatile
  2188  007D6E  9C83               	bcf	131,6,c	;volatile
  2189  007D70  8A83               	bsf	131,5,c	;volatile
  2190  007D72  9883               	bcf	131,4,c	;volatile
  2191  007D74  9284               	bcf	132,1,c	;volatile
  2192  007D76  9484               	bcf	132,2,c	;volatile
  2193                           
  2194                           ;flexlcd.h: 88: _delay((unsigned long)((5500)*(8000000/4000000.0)));
  2195  007D78  0E0F               	movlw	15
  2196  007D7A  6E1F               	movwf	??_Lcd_Init^0,c
  2197  007D7C  0E48               	movlw	72
  2198  007D7E                     u627:
  2199  007D7E  2EE8               	decfsz	wreg,f,c
  2200  007D80  D7FE               	bra	u627
  2201  007D82  2E1F               	decfsz	??_Lcd_Init^0,f,c
  2202  007D84  D7FC               	bra	u627
  2203  007D86  0E28               	movlw	40
  2204  007D88  ECD0  F03E         	call	_Lcd_Cmd
  2205  007D8C  0E10               	movlw	16
  2206  007D8E  ECD0  F03E         	call	_Lcd_Cmd
  2207  007D92  0E01               	movlw	1
  2208  007D94  ECD0  F03E         	call	_Lcd_Cmd
  2209  007D98  0E0F               	movlw	15
  2210  007D9A  ECD0  F03E         	call	_Lcd_Cmd
  2211  007D9E  0012               	return		;funcret
  2212  007DA0                     __end_of_Lcd_Init:
  2213                           	callstack 0
  2214                           
  2215 ;; *************** function _Lcd_Cmd *****************
  2216 ;; Defined at:
  2217 ;;		line 152 in file "flexlcd.h"
  2218 ;; Parameters:    Size  Location     Type
  2219 ;;  data            1    wreg     unsigned char 
  2220 ;; Auto vars:     Size  Location     Type
  2221 ;;  data            1    2[COMRAM] unsigned char 
  2222 ;; Return value:  Size  Location     Type
  2223 ;;                  1    wreg      void 
  2224 ;; Registers used:
  2225 ;;		wreg, status,2, status,0
  2226 ;; Tracked objects:
  2227 ;;		On entry : 0/0
  2228 ;;		On exit  : 0/0
  2229 ;;		Unchanged: 0/0
  2230 ;; Data sizes:     COMRAM   BANK0   BANK1   BANK2   BANK3   BANK4   BANK5
  2231 ;;      Params:         0       0       0       0       0       0       0
  2232 ;;      Locals:         1       0       0       0       0       0       0
  2233 ;;      Temps:          2       0       0       0       0       0       0
  2234 ;;      Totals:         3       0       0       0       0       0       0
  2235 ;;Total ram usage:        3 bytes
  2236 ;; Hardware stack levels used:    1
  2237 ;; This function calls:
  2238 ;;		Nothing
  2239 ;; This function is called by:
  2240 ;;		_Lcd_Init
  2241 ;;		_Lcd_Out
  2242 ;;		_main
  2243 ;;		_Lcd_Out2
  2244 ;; This function uses a non-reentrant model
  2245 ;;
  2246                           
  2247                           	psect	text17
  2248  007DA0                     __ptext17:
  2249                           	callstack 0
  2250  007DA0                     _Lcd_Cmd:
  2251                           	callstack 29
  2252                           
  2253                           ;incstack = 0
  2254                           ;Lcd_Cmd@data stored from wreg
  2255  007DA0  6E1E               	movwf	Lcd_Cmd@data^0,c
  2256  007DA2                     
  2257                           ;flexlcd.h: 153: PORTEbits.RE1 = 0; PORTEbits.RE2 = 0;
  2258  007DA2  9284               	bcf	132,1,c	;volatile
  2259  007DA4  9484               	bcf	132,2,c	;volatile
  2260  007DA6                     
  2261                           ;flexlcd.h: 154: PORTDbits.RD7 = (data & 0b10000000)>>7; PORTDbits.RD6 = (data & 0b01000
      +                          000)>>6;
  2262  007DA6  6A1C               	clrf	??_Lcd_Cmd^0,c
  2263  007DA8  AE1E               	btfss	Lcd_Cmd@data^0,7,c
  2264  007DAA  D001               	bra	u305
  2265  007DAC  2A1C               	incf	??_Lcd_Cmd^0,f,c
  2266  007DAE                     u305:
  2267  007DAE  0E01               	movlw	1
  2268  007DB0  161C               	andwf	??_Lcd_Cmd^0,f,c
  2269  007DB2  321C               	rrcf	??_Lcd_Cmd^0,f,c
  2270  007DB4  321C               	rrcf	??_Lcd_Cmd^0,f,c
  2271  007DB6  5083               	movf	131,w,c	;volatile
  2272  007DB8  181C               	xorwf	??_Lcd_Cmd^0,w,c
  2273  007DBA  0B7F               	andlw	-129
  2274  007DBC  181C               	xorwf	??_Lcd_Cmd^0,w,c
  2275  007DBE  6E83               	movwf	131,c	;volatile
  2276  007DC0  C01E  F01C         	movff	Lcd_Cmd@data,??_Lcd_Cmd
  2277  007DC4  0E06               	movlw	6
  2278  007DC6  6E1D               	movwf	(??_Lcd_Cmd+1)^0,c
  2279  007DC8                     u315:
  2280  007DC8  90D8               	bcf	status,0,c
  2281  007DCA  321C               	rrcf	??_Lcd_Cmd^0,f,c
  2282  007DCC  2E1D               	decfsz	(??_Lcd_Cmd+1)^0,f,c
  2283  007DCE  EFE4  F03E         	goto	u315
  2284  007DD2  0E01               	movlw	1
  2285  007DD4  161C               	andwf	??_Lcd_Cmd^0,f,c
  2286  007DD6  3A1C               	swapf	??_Lcd_Cmd^0,f,c
  2287  007DD8  461C               	rlncf	??_Lcd_Cmd^0,f,c
  2288  007DDA  461C               	rlncf	??_Lcd_Cmd^0,f,c
  2289  007DDC  5083               	movf	131,w,c	;volatile
  2290  007DDE  181C               	xorwf	??_Lcd_Cmd^0,w,c
  2291  007DE0  0BBF               	andlw	-65
  2292  007DE2  181C               	xorwf	??_Lcd_Cmd^0,w,c
  2293  007DE4  6E83               	movwf	131,c	;volatile
  2294                           
  2295                           ;flexlcd.h: 155: PORTDbits.RD5 = (data & 0b00100000)>>5; PORTDbits.RD4 = (data & 0b00010
      +                          000)>>4;
  2296  007DE6  C01E  F01C         	movff	Lcd_Cmd@data,??_Lcd_Cmd
  2297  007DEA  0E05               	movlw	5
  2298  007DEC  6E1D               	movwf	(??_Lcd_Cmd+1)^0,c
  2299  007DEE                     u325:
  2300  007DEE  90D8               	bcf	status,0,c
  2301  007DF0  321C               	rrcf	??_Lcd_Cmd^0,f,c
  2302  007DF2  2E1D               	decfsz	(??_Lcd_Cmd+1)^0,f,c
  2303  007DF4  EFF7  F03E         	goto	u325
  2304  007DF8  0E01               	movlw	1
  2305  007DFA  161C               	andwf	??_Lcd_Cmd^0,f,c
  2306  007DFC  3A1C               	swapf	??_Lcd_Cmd^0,f,c
  2307  007DFE  461C               	rlncf	??_Lcd_Cmd^0,f,c
  2308  007E00  5083               	movf	131,w,c	;volatile
  2309  007E02  181C               	xorwf	??_Lcd_Cmd^0,w,c
  2310  007E04  0BDF               	andlw	-33
  2311  007E06  181C               	xorwf	??_Lcd_Cmd^0,w,c
  2312  007E08  6E83               	movwf	131,c	;volatile
  2313  007E0A  C01E  F01C         	movff	Lcd_Cmd@data,??_Lcd_Cmd
  2314  007E0E  3A1C               	swapf	??_Lcd_Cmd^0,f,c
  2315  007E10  0E0F               	movlw	15
  2316  007E12  161C               	andwf	??_Lcd_Cmd^0,f,c
  2317  007E14  0E01               	movlw	1
  2318  007E16  161C               	andwf	??_Lcd_Cmd^0,f,c
  2319  007E18  3A1C               	swapf	??_Lcd_Cmd^0,f,c
  2320  007E1A  5083               	movf	131,w,c	;volatile
  2321  007E1C  181C               	xorwf	??_Lcd_Cmd^0,w,c
  2322  007E1E  0BEF               	andlw	-17
  2323  007E20  181C               	xorwf	??_Lcd_Cmd^0,w,c
  2324  007E22  6E83               	movwf	131,c	;volatile
  2325  007E24                     
  2326                           ;flexlcd.h: 156: _delay(10);
  2327  007E24  0E03               	movlw	3
  2328  007E26                     u637:
  2329  007E26  2EE8               	decfsz	wreg,f,c
  2330  007E28  D7FE               	bra	u637
  2331  007E2A  F000               	nop	
  2332  007E2C                     
  2333                           ;flexlcd.h: 157: PORTEbits.RE1 = 1; _delay((unsigned long)((5)*(8000000/4000000.0))); PO
      +                          RTEbits.RE1 = 0;
  2334  007E2C  8284               	bsf	132,1,c	;volatile
  2335  007E2E  0E03               	movlw	3
  2336  007E30                     u647:
  2337  007E30  2EE8               	decfsz	wreg,f,c
  2338  007E32  D7FE               	bra	u647
  2339  007E34  F000               	nop	
  2340  007E36  9284               	bcf	132,1,c	;volatile
  2341                           
  2342                           ;flexlcd.h: 158: PORTDbits.RD7 = (data & 0b00001000)>>3; PORTDbits.RD6 = (data & 0b00000
      +                          100)>>2;
  2343  007E38  C01E  F01C         	movff	Lcd_Cmd@data,??_Lcd_Cmd
  2344  007E3C  90D8               	bcf	status,0,c
  2345  007E3E  321C               	rrcf	??_Lcd_Cmd^0,f,c
  2346  007E40  90D8               	bcf	status,0,c
  2347  007E42  321C               	rrcf	??_Lcd_Cmd^0,f,c
  2348  007E44  90D8               	bcf	status,0,c
  2349  007E46  321C               	rrcf	??_Lcd_Cmd^0,f,c
  2350  007E48  0E01               	movlw	1
  2351  007E4A  161C               	andwf	??_Lcd_Cmd^0,f,c
  2352  007E4C  321C               	rrcf	??_Lcd_Cmd^0,f,c
  2353  007E4E  321C               	rrcf	??_Lcd_Cmd^0,f,c
  2354  007E50  5083               	movf	131,w,c	;volatile
  2355  007E52  181C               	xorwf	??_Lcd_Cmd^0,w,c
  2356  007E54  0B7F               	andlw	-129
  2357  007E56  181C               	xorwf	??_Lcd_Cmd^0,w,c
  2358  007E58  6E83               	movwf	131,c	;volatile
  2359  007E5A  C01E  F01C         	movff	Lcd_Cmd@data,??_Lcd_Cmd
  2360  007E5E  90D8               	bcf	status,0,c
  2361  007E60  321C               	rrcf	??_Lcd_Cmd^0,f,c
  2362  007E62  90D8               	bcf	status,0,c
  2363  007E64  321C               	rrcf	??_Lcd_Cmd^0,f,c
  2364  007E66  0E01               	movlw	1
  2365  007E68  161C               	andwf	??_Lcd_Cmd^0,f,c
  2366  007E6A  3A1C               	swapf	??_Lcd_Cmd^0,f,c
  2367  007E6C  461C               	rlncf	??_Lcd_Cmd^0,f,c
  2368  007E6E  461C               	rlncf	??_Lcd_Cmd^0,f,c
  2369  007E70  5083               	movf	131,w,c	;volatile
  2370  007E72  181C               	xorwf	??_Lcd_Cmd^0,w,c
  2371  007E74  0BBF               	andlw	-65
  2372  007E76  181C               	xorwf	??_Lcd_Cmd^0,w,c
  2373  007E78  6E83               	movwf	131,c	;volatile
  2374                           
  2375                           ;flexlcd.h: 159: PORTDbits.RD5 = (data & 0b00000010)>>1; PORTDbits.RD4 = (data & 0b00000
      +                          001);
  2376  007E7A  C01E  F01C         	movff	Lcd_Cmd@data,??_Lcd_Cmd
  2377  007E7E  90D8               	bcf	status,0,c
  2378  007E80  321C               	rrcf	??_Lcd_Cmd^0,f,c
  2379  007E82  0E01               	movlw	1
  2380  007E84  161C               	andwf	??_Lcd_Cmd^0,f,c
  2381  007E86  3A1C               	swapf	??_Lcd_Cmd^0,f,c
  2382  007E88  461C               	rlncf	??_Lcd_Cmd^0,f,c
  2383  007E8A  5083               	movf	131,w,c	;volatile
  2384  007E8C  181C               	xorwf	??_Lcd_Cmd^0,w,c
  2385  007E8E  0BDF               	andlw	-33
  2386  007E90  181C               	xorwf	??_Lcd_Cmd^0,w,c
  2387  007E92  6E83               	movwf	131,c	;volatile
  2388  007E94  C01E  F01C         	movff	Lcd_Cmd@data,??_Lcd_Cmd
  2389  007E98  0E01               	movlw	1
  2390  007E9A  161C               	andwf	??_Lcd_Cmd^0,f,c
  2391  007E9C  3A1C               	swapf	??_Lcd_Cmd^0,f,c
  2392  007E9E  5083               	movf	131,w,c	;volatile
  2393  007EA0  181C               	xorwf	??_Lcd_Cmd^0,w,c
  2394  007EA2  0BEF               	andlw	-17
  2395  007EA4  181C               	xorwf	??_Lcd_Cmd^0,w,c
  2396  007EA6  6E83               	movwf	131,c	;volatile
  2397  007EA8                     
  2398                           ;flexlcd.h: 160: _delay(10);
  2399  007EA8  0E03               	movlw	3
  2400  007EAA                     u657:
  2401  007EAA  2EE8               	decfsz	wreg,f,c
  2402  007EAC  D7FE               	bra	u657
  2403  007EAE  F000               	nop	
  2404  007EB0                     
  2405                           ;flexlcd.h: 161: PORTEbits.RE1 = 1; _delay((unsigned long)((5)*(8000000/4000000.0))); PO
      +                          RTEbits.RE1 = 0;
  2406  007EB0  8284               	bsf	132,1,c	;volatile
  2407  007EB2  0E03               	movlw	3
  2408  007EB4                     u667:
  2409  007EB4  2EE8               	decfsz	wreg,f,c
  2410  007EB6  D7FE               	bra	u667
  2411  007EB8  F000               	nop	
  2412  007EBA  9284               	bcf	132,1,c	;volatile
  2413  007EBC                     
  2414                           ;flexlcd.h: 162: _delay((unsigned long)((5500)*(8000000/4000000.0)));
  2415  007EBC  0E0F               	movlw	15
  2416  007EBE  6E1C               	movwf	??_Lcd_Cmd^0,c
  2417  007EC0  0E48               	movlw	72
  2418  007EC2                     u677:
  2419  007EC2  2EE8               	decfsz	wreg,f,c
  2420  007EC4  D7FE               	bra	u677
  2421  007EC6  2E1C               	decfsz	??_Lcd_Cmd^0,f,c
  2422  007EC8  D7FC               	bra	u677
  2423  007ECA  0012               	return		;funcret
  2424  007ECC                     __end_of_Lcd_Cmd:
  2425                           	callstack 0
  2426  0000                     
  2427                           	psect	rparam
  2428  0000                     
  2429                           	psect	idloc
  2430                           
  2431                           ;Config register IDLOC0 @ 0x200000
  2432                           ;	unspecified, using default values
  2433  200000                     	org	2097152
  2434  200000  FF                 	db	255
  2435                           
  2436                           ;Config register IDLOC1 @ 0x200001
  2437                           ;	unspecified, using default values
  2438  200001                     	org	2097153
  2439  200001  FF                 	db	255
  2440                           
  2441                           ;Config register IDLOC2 @ 0x200002
  2442                           ;	unspecified, using default values
  2443  200002                     	org	2097154
  2444  200002  FF                 	db	255
  2445                           
  2446                           ;Config register IDLOC3 @ 0x200003
  2447                           ;	unspecified, using default values
  2448  200003                     	org	2097155
  2449  200003  FF                 	db	255
  2450                           
  2451                           ;Config register IDLOC4 @ 0x200004
  2452                           ;	unspecified, using default values
  2453  200004                     	org	2097156
  2454  200004  FF                 	db	255
  2455                           
  2456                           ;Config register IDLOC5 @ 0x200005
  2457                           ;	unspecified, using default values
  2458  200005                     	org	2097157
  2459  200005  FF                 	db	255
  2460                           
  2461                           ;Config register IDLOC6 @ 0x200006
  2462                           ;	unspecified, using default values
  2463  200006                     	org	2097158
  2464  200006  FF                 	db	255
  2465                           
  2466                           ;Config register IDLOC7 @ 0x200007
  2467                           ;	unspecified, using default values
  2468  200007                     	org	2097159
  2469  200007  FF                 	db	255
  2470                           
  2471                           	psect	config
  2472                           
  2473                           ; Padding undefined space
  2474  300000                     	org	3145728
  2475  300000  FF                 	db	255
  2476                           
  2477                           ;Config register CONFIG1H @ 0x300001
  2478                           ;	Oscillator Selection bits
  2479                           ;	OSC = HS, HS oscillator
  2480                           ;	Fail-Safe Clock Monitor Enable bit
  2481                           ;	FCMEN = OFF, Fail-Safe Clock Monitor disabled
  2482                           ;	Internal/External Oscillator Switchover bit
  2483                           ;	IESO = OFF, Oscillator Switchover mode disabled
  2484  300001                     	org	3145729
  2485  300001  02                 	db	2
  2486                           
  2487                           ;Config register CONFIG2L @ 0x300002
  2488                           ;	Power-up Timer Enable bit
  2489                           ;	PWRT = OFF, PWRT disabled
  2490                           ;	Brown-out Reset Enable bits
  2491                           ;	BOREN = SBORDIS, Brown-out Reset enabled in hardware only (SBOREN is disabled)
  2492                           ;	Brown Out Reset Voltage bits
  2493                           ;	BORV = 3, Minimum setting
  2494  300002                     	org	3145730
  2495  300002  1F                 	db	31
  2496                           
  2497                           ;Config register CONFIG2H @ 0x300003
  2498                           ;	Watchdog Timer Enable bit
  2499                           ;	WDT = ON, WDT enabled
  2500                           ;	Watchdog Timer Postscale Select bits
  2501                           ;	WDTPS = 32768, 1:32768
  2502  300003                     	org	3145731
  2503  300003  1F                 	db	31
  2504                           
  2505                           ; Padding undefined space
  2506  300004                     	org	3145732
  2507  300004  FF                 	db	255
  2508                           
  2509                           ;Config register CONFIG3H @ 0x300005
  2510                           ;	CCP2 MUX bit
  2511                           ;	CCP2MX = PORTC, CCP2 input/output is multiplexed with RC1
  2512                           ;	PORTB A/D Enable bit
  2513                           ;	PBADEN = ON, PORTB<4:0> pins are configured as analog input channels on Reset
  2514                           ;	Low-Power Timer1 Oscillator Enable bit
  2515                           ;	LPT1OSC = OFF, Timer1 configured for higher power operation
  2516                           ;	MCLR Pin Enable bit
  2517                           ;	MCLRE = ON, MCLR pin enabled; RE3 input pin disabled
  2518  300005                     	org	3145733
  2519  300005  83                 	db	131
  2520                           
  2521                           ;Config register CONFIG4L @ 0x300006
  2522                           ;	Stack Full/Underflow Reset Enable bit
  2523                           ;	STVREN = ON, Stack full/underflow will cause Reset
  2524                           ;	Single-Supply ICSP Enable bit
  2525                           ;	LVP = ON, Single-Supply ICSP enabled
  2526                           ;	Extended Instruction Set Enable bit
  2527                           ;	XINST = OFF, Instruction set extension and Indexed Addressing mode disabled (Legacy mo
      +                          de)
  2528                           ;	Background Debugger Enable bit
  2529                           ;	DEBUG = 0x1, unprogrammed default
  2530  300006                     	org	3145734
  2531  300006  85                 	db	133
  2532                           
  2533                           ; Padding undefined space
  2534  300007                     	org	3145735
  2535  300007  FF                 	db	255
  2536                           
  2537                           ;Config register CONFIG5L @ 0x300008
  2538                           ;	Code Protection bit
  2539                           ;	CP0 = OFF, Block 0 (000800-001FFFh) not code-protected
  2540                           ;	Code Protection bit
  2541                           ;	CP1 = OFF, Block 1 (002000-003FFFh) not code-protected
  2542                           ;	Code Protection bit
  2543                           ;	CP2 = OFF, Block 2 (004000-005FFFh) not code-protected
  2544                           ;	Code Protection bit
  2545                           ;	CP3 = OFF, Block 3 (006000-007FFFh) not code-protected
  2546  300008                     	org	3145736
  2547  300008  0F                 	db	15
  2548                           
  2549                           ;Config register CONFIG5H @ 0x300009
  2550                           ;	Boot Block Code Protection bit
  2551                           ;	CPB = OFF, Boot block (000000-0007FFh) not code-protected
  2552                           ;	Data EEPROM Code Protection bit
  2553                           ;	CPD = OFF, Data EEPROM not code-protected
  2554  300009                     	org	3145737
  2555  300009  C0                 	db	192
  2556                           
  2557                           ;Config register CONFIG6L @ 0x30000A
  2558                           ;	Write Protection bit
  2559                           ;	WRT0 = OFF, Block 0 (000800-001FFFh) not write-protected
  2560                           ;	Write Protection bit
  2561                           ;	WRT1 = OFF, Block 1 (002000-003FFFh) not write-protected
  2562                           ;	Write Protection bit
  2563                           ;	WRT2 = OFF, Block 2 (004000-005FFFh) not write-protected
  2564                           ;	Write Protection bit
  2565                           ;	WRT3 = OFF, Block 3 (006000-007FFFh) not write-protected
  2566  30000A                     	org	3145738
  2567  30000A  0F                 	db	15
  2568                           
  2569                           ;Config register CONFIG6H @ 0x30000B
  2570                           ;	Configuration Register Write Protection bit
  2571                           ;	WRTC = OFF, Configuration registers (300000-3000FFh) not write-protected
  2572                           ;	Boot Block Write Protection bit
  2573                           ;	WRTB = OFF, Boot block (000000-0007FFh) not write-protected
  2574                           ;	Data EEPROM Write Protection bit
  2575                           ;	WRTD = OFF, Data EEPROM not write-protected
  2576  30000B                     	org	3145739
  2577  30000B  E0                 	db	224
  2578                           
  2579                           ;Config register CONFIG7L @ 0x30000C
  2580                           ;	Table Read Protection bit
  2581                           ;	EBTR0 = OFF, Block 0 (000800-001FFFh) not protected from table reads executed in other
      +                           blocks
  2582                           ;	Table Read Protection bit
  2583                           ;	EBTR1 = OFF, Block 1 (002000-003FFFh) not protected from table reads executed in other
      +                           blocks
  2584                           ;	Table Read Protection bit
  2585                           ;	EBTR2 = OFF, Block 2 (004000-005FFFh) not protected from table reads executed in other
      +                           blocks
  2586                           ;	Table Read Protection bit
  2587                           ;	EBTR3 = OFF, Block 3 (006000-007FFFh) not protected from table reads executed in other
      +                           blocks
  2588  30000C                     	org	3145740
  2589  30000C  0F                 	db	15
  2590                           
  2591                           ;Config register CONFIG7H @ 0x30000D
  2592                           ;	Boot Block Table Read Protection bit
  2593                           ;	EBTRB = OFF, Boot block (000000-0007FFh) not protected from table reads executed in ot
      +                          her blocks
  2594  30000D                     	org	3145741
  2595  30000D  40                 	db	64
  2596                           tosu	equ	0xFFF
  2597                           tosh	equ	0xFFE
  2598                           tosl	equ	0xFFD
  2599                           stkptr	equ	0xFFC
  2600                           pclatu	equ	0xFFB
  2601                           pclath	equ	0xFFA
  2602                           pcl	equ	0xFF9
  2603                           tblptru	equ	0xFF8
  2604                           tblptrh	equ	0xFF7
  2605                           tblptrl	equ	0xFF6
  2606                           tablat	equ	0xFF5
  2607                           prodh	equ	0xFF4
  2608                           prodl	equ	0xFF3
  2609                           indf0	equ	0xFEF
  2610                           postinc0	equ	0xFEE
  2611                           postdec0	equ	0xFED
  2612                           preinc0	equ	0xFEC
  2613                           plusw0	equ	0xFEB
  2614                           fsr0h	equ	0xFEA
  2615                           fsr0l	equ	0xFE9
  2616                           wreg	equ	0xFE8
  2617                           indf1	equ	0xFE7
  2618                           postinc1	equ	0xFE6
  2619                           postdec1	equ	0xFE5
  2620                           preinc1	equ	0xFE4
  2621                           plusw1	equ	0xFE3
  2622                           fsr1h	equ	0xFE2
  2623                           fsr1l	equ	0xFE1
  2624                           bsr	equ	0xFE0
  2625                           indf2	equ	0xFDF
  2626                           postinc2	equ	0xFDE
  2627                           postdec2	equ	0xFDD
  2628                           preinc2	equ	0xFDC
  2629                           plusw2	equ	0xFDB
  2630                           fsr2h	equ	0xFDA
  2631                           fsr2l	equ	0xFD9
  2632                           status	equ	0xFD8

Data Sizes:
    Strings     0
    Constant    0
    Data        2
    BSS         27
    Persistent  0
    Stack       0

Auto Spaces:
    Space          Size  Autos    Used
    COMRAM          127     20      49
    BANK0           128      0       0
    BANK1           256      0       0
    BANK2           256      0       0
    BANK3           256      0       0
    BANK4           256      0       0
    BANK5           256      0       0

Pointer List with Targets:

    Lcd_Out@buffer	PTR const unsigned char  size(2) Largest target is 10
		 -> time(COMRAM[10]), date(COMRAM[10]), 


Critical Paths under _main in COMRAM

    _main->_e2pext_w
    _rtc_r->_i2c_rb
    _e2pext_w->_e2pext_r
    _e2pext_r->_i2c_rb
    _Lcd_Out->_Lcd_Chr_CP
    _Lcd_Out->_Lcd_Cmd
    _Lcd_Init->_Lcd_Cmd

Critical Paths under _main in BANK0

    None.

Critical Paths under _main in BANK1

    None.

Critical Paths under _main in BANK2

    None.

Critical Paths under _main in BANK3

    None.

Critical Paths under _main in BANK4

    None.

Critical Paths under _main in BANK5

    None.

Call Graph Tables:

 ---------------------------------------------------------------------------------
 (Depth) Function   	        Calls       Base Space   Used Autos Params    Refs
 ---------------------------------------------------------------------------------
 (0) _main                                                 0     0      0    3414
                            _Lcd_Cmd
                           _Lcd_Init
                            _Lcd_Out
                           _e2pext_r
                           _e2pext_w
                           _e2prom_r
                           _e2prom_w
                           _i2c_init
                          _i2c_start
                              _rtc_r
 ---------------------------------------------------------------------------------
 (1) _rtc_r                                                1     1      0     518
                                              5 COMRAM     1     1      0
                               _getd
                               _getu
                             _i2c_rb
                          _i2c_start
                           _i2c_stop
                             _i2c_wb
 ---------------------------------------------------------------------------------
 (2) _getu                                                 1     1      0      22
                                              0 COMRAM     1     1      0
 ---------------------------------------------------------------------------------
 (2) _getd                                                 1     1      0      22
                                              0 COMRAM     1     1      0
 ---------------------------------------------------------------------------------
 (1) _i2c_init                                             0     0      0       0
 ---------------------------------------------------------------------------------
 (1) _e2prom_w                                             2     1      1     120
                                              0 COMRAM     2     1      1
 ---------------------------------------------------------------------------------
 (1) _e2prom_r                                             1     1      0      22
                                              0 COMRAM     1     1      0
 ---------------------------------------------------------------------------------
 (1) _e2pext_w                                            10     7      3     936
                                             10 COMRAM    10     7      3
                           _e2pext_r
                          _i2c_start
                           _i2c_stop
                             _i2c_wb
 ---------------------------------------------------------------------------------
 (2) _e2pext_r                                             5     3      2     491
                                              5 COMRAM     5     3      2
                             _i2c_rb
                          _i2c_start
                           _i2c_stop
                             _i2c_wb
 ---------------------------------------------------------------------------------
 (2) _i2c_wb                                               4     4      0      90
                                              0 COMRAM     4     4      0
                              _delay
 ---------------------------------------------------------------------------------
 (2) _i2c_stop                                             0     0      0       0
                              _delay
 ---------------------------------------------------------------------------------
 (2) _i2c_start                                            0     0      0       0
                              _delay
 ---------------------------------------------------------------------------------
 (2) _i2c_rb                                               5     5      0     114
                                              0 COMRAM     5     5      0
                              _delay
 ---------------------------------------------------------------------------------
 (3) _delay                                                0     0      0       0
 ---------------------------------------------------------------------------------
 (1) _Lcd_Out                                              5     2      3     837
                                              3 COMRAM     5     2      3
                         _Lcd_Chr_CP
                            _Lcd_Cmd
 ---------------------------------------------------------------------------------
 (2) _Lcd_Chr_CP                                           3     3      0     176
                                              0 COMRAM     3     3      0
 ---------------------------------------------------------------------------------
 (1) _Lcd_Init                                             2     2      0     314
                                              3 COMRAM     2     2      0
                            _Lcd_Cmd
 ---------------------------------------------------------------------------------
 (2) _Lcd_Cmd                                              3     3      0     176
                                              0 COMRAM     3     3      0
 ---------------------------------------------------------------------------------
 Estimated maximum stack depth 3
 ---------------------------------------------------------------------------------

 Call Graph Graphs:

 _main (ROOT)
   _Lcd_Cmd
   _Lcd_Init
     _Lcd_Cmd
   _Lcd_Out
     _Lcd_Chr_CP
     _Lcd_Cmd
   _e2pext_r
     _i2c_rb
       _delay
     _i2c_start
       _delay
     _i2c_stop
       _delay
     _i2c_wb
       _delay
   _e2pext_w
     _e2pext_r
       _i2c_rb
         _delay
       _i2c_start
         _delay
       _i2c_stop
         _delay
       _i2c_wb
         _delay
     _i2c_start
       _delay
     _i2c_stop
       _delay
     _i2c_wb
       _delay
   _e2prom_r
   _e2prom_w
   _i2c_init
   _i2c_start
     _delay
   _rtc_r
     _getd
     _getu
     _i2c_rb
       _delay
     _i2c_start
       _delay
     _i2c_stop
       _delay
     _i2c_wb
       _delay

 Address spaces:
Name               Size   Autos  Total    Cost      Usage
BIGRAM             5FF      0       0      17        0.0%
EEDATA             100      0       0       0        0.0%
BITBANK5           100      0       0      16        0.0%
BANK5              100      0       0      14        0.0%
BITBANK4           100      0       0      12        0.0%
BANK4              100      0       0      13        0.0%
BITBANK3           100      0       0      10        0.0%
BANK3              100      0       0      11        0.0%
BITBANK2           100      0       0       8        0.0%
BANK2              100      0       0       9        0.0%
BITBANK1           100      0       0       6        0.0%
BANK1              100      0       0       7        0.0%
BITBANK0            80      0       0       4        0.0%
BANK0               80      0       0       5        0.0%
BITCOMRAM           7F      0       0       0        0.0%
COMRAM              7F     14      31       1       38.6%
BITSFR               0      0       0     200        0.0%
SFR                  0      0       0     200        0.0%
STACK                0      0       0       2        0.0%
NULL                 0      0       0       0        0.0%
ABS                  0      0      31      15        0.0%
DATA                 0      0      31       3        0.0%
CODE                 0      0       0       0        0.0%


Microchip Technology PIC18 Macro Assembler V2.31 build 20201012212115 
Symbol Table                                                                                   Sat Nov 21 11:59:23 2020

                      l9 7824                       l12 77D0                       l30 79C0  
                     l22 78C8                       l15 7802                       l23 78D6  
                     l26 7950                       l18 7812                       l27 7998  
                     l28 79B0                      l110 7D4C                      l111 7D9E  
                    l211 7930                      l140 7FFE                      l124 7ACE  
                    l212 793E                      l109 7D00                      l221 7A44  
                    l143 7ECA                      l209 7906                      l217 79FA  
                    l154 7C28                      l180 7BA6                      l174 77F2  
                    l191 77E6                      l177 77DA                      l194 783C  
                    l196 784A                      l197 784C                      u400 784A  
                    u305 7DAE                      u401 7846                      u250 78C8  
                    u410 79EA                      u315 7DC8                      u251 78C4  
                    u411 79E6                      u260 796E                      u244 7898  
                    u420 7A34                      u325 7DEE                      u261 7966  
                    u245 7894                      u421 7A30                      u430 7A44  
                    u335 7EDA                      u431 7A40                      u280 7998  
                    u360 78F6                      u345 7EF4                      u281 7994  
                    u361 78F2                      u290 79AA                      u274 797A  
                    u370 7920                      u450 7C68                      u507 7FE0  
                    u355 7F1A                      u291 79A6                      u275 7976  
                    u371 791C                      u451 7C64                      u380 7D4C  
                    u268 7970                      u460 7C86                      u381 7D48  
                    u517 7FEA                      u461 7C82                      u390 7ACE  
                    u607 7D32                      u527 7FF6                      u391 7ACA  
                    u617 7D66                      u537 7CAE                      u627 7D7E  
                    u547 7CBC                      u637 7E26                      u557 7CCA  
                    u477 7F52                      u647 7E30                      u567 7CD8  
                    u487 7F5C                      u657 7EAA                      u577 7CE6  
                    u497 7FD6                      u667 7EB4                      u587 7CF4  
                    u677 7EC2                      u597 7D1A                      _str 0001  
                    wreg 000FE8                     l1401 78D4                     l1403 7942  
                   l1421 7986                     l1405 7946                     l1501 7920  
                   l1431 79B6                     l1423 7988                     l1415 7952  
                   l1407 7948                     l1503 792A                     l1511 77EA  
                   l1441 7DA6                     l1521 7C90                     l1433 79BC  
                   l1425 799A                     l1417 7956                     l1409 794A  
                   l1505 7938                     l1601 7AD4                     l1451 7EA8  
                   l1443 7E24                     l1531 7D18                     l1523 7CA8  
                   l1363 7814                     l1435 79BE                     l1427 79AA  
                   l1419 7984                     l1371 7804                     l1507 793C  
                   l1515 77D4                     l1611 7AF8                     l1603 7ADA  
                   l1453 7EB0                     l1445 7E2C                     l1541 7D28  
                   l1533 7D20                     l1525 7CFC                     l1461 7ECE  
                   l1429 79B2                     l1365 77F4                     l1373 7808  
                   l1621 7B1A                     l1613 7B00                     l1605 7AE4  
                   l1455 7EB2                     l1447 7E2E                     l1439 7DA2  
                   l1551 7D6E                     l1543 7D2A                     l1535 7D22  
                   l1471 7F62                     l1463 7ED2                     l1367 77F8  
                   l1375 780C                     l1391 78B4                     l1519 77CA  
                   l1631 7B44                     l1623 7B22                     l1615 7B08  
                   l1607 7AEA                     l1457 7EBA                     l1449 7E36  
                   l1561 7D86                     l1553 7D70                     l1545 7D3A  
                   l1537 7D24                     l1481 7FE8                     l1473 7FD4  
                   l1465 7F50                     l1369 77FC                     l1393 78B6  
                   l1385 7884                     l1377 787E                     l1641 7B6E  
                   l1633 7B4A                     l1625 7B2A                     l1617 7B0C  
                   l1609 7AF4                     l1459 7EBC                     l1571 7D92  
                   l1563 7D86                     l1555 7D72                     l1547 7D64  
                   l1539 7D26                     l1483 7FF0                     l1475 7FDC  
                   l1467 7F58                     l1395 78B8                     l1387 78AE  
                   l1379 7880                     l1491 78E6                     l1651 7B8E  
                   l1643 7B72                     l1635 7B54                     l1627 7B34  
                   l1619 7B16                     l1731 7BFC                     l1723 7BA8  
                   l1573 7D98                     l1565 7D8C                     l1557 7D74  
                   l1549 7D6C                     l1477 7FDE                     l1469 7F5A  
                   l1581 7A56                     l1397 78CA                     l1389 78B0  
                   l1493 78F6                     l1485 78D8                     l1661 7830  
                   l1653 7B96                     l1645 7B7A                     l1637 7B5C  
                   l1629 7B3C                     l1741 7C18                     l1733 7C02  
                   l1725 7BB0                     l1575 7D98                     l1567 7D8C  
                   l1559 7D76                     l1479 7FE6                     l1583 7A60  
                   l1591 7A9A                     l1399 78CE                     l1495 7900  
                   l1487 78DE                     l1671 79C8                     l1663 7832  
                   l1655 7B9E                     l1647 7B82                     l1639 7B64  
                   l1751 7C68                     l1743 7C2A                     l1735 7C06  
                   l1727 7BBE                     l1569 7D92                     l1593 7AA4  
                   l1585 7A6A                     l1577 7A48                     l1497 790C  
                   l1489 78E2                     l1681 79EA                     l1673 79CE  
                   l1665 7836                     l1657 7828                     l1649 7B8A  
                   l1753 7C6A                     l1745 7C2E                     l1737 7C0A  
                   l1729 7BF8                     l1595 7AB2                     l1579 7A4C  
                   l1499 7910                     l1691 7A34                     l1683 79F4  
                   l1675 79D2                     l1667 783A                     l1659 782C  
                   l1755 7C86                     l1747 7C40                     l1739 7C0E  
                   l1597 7AB6                     l1589 7A74                     l1685 7A06  
                   l1677 79D6                     l1669 79C2                     l1693 77DE  
                   l1749 7C52                     l1687 7A0A                     l1679 79DA  
                   l1695 77E2                     l1599 7AD0                     l1689 7A0C  
                   l1697 77E4                     _LATA 000F89                     _LATB 000F8A  
                   _LATC 000F8B                     _LATD 000F8C                     _LATE 000F8D  
                   _date 0012                     _getd 77E8                     _getu 77D2  
                   _main 7BA8                     _duty 0030                     _time 0008  
                   fsr2h 000FDA                     indf2 000FDF                     fsr2l 000FD9  
                   start 0000               e2pext_r@ah 0025               e2pext_r@al 0024  
             e2pext_w@ah 002B               e2pext_w@al 002C               e2pext_w@nt 002D  
        __end_of_Lcd_Cmd 7ECC          __end_of_Lcd_Out 7AD0             ___param_bank 000000  
             _Lcd_Chr_CP 7ECC                    ?_getd 001C                    ?_getu 001C  
                  ?_main 001C                    _EEADR 000FA9                    _T1CON 000FCD  
                  _TMR1H 000FCF                    _TMR1L 000FCE                    _PORTA 000F80  
                  _PORTB 000F81                    _PORTC 000F82                    _PORTD 000F83  
                  _PORTE 000F84                    _TRISA 000F92                    _TRISB 000F93  
                  _TRISC 000F94                    _TRISD 000F95                    _TRISE 000F96  
                  _delay 7814                    _count 0006                    _rtc_r 7AD0  
                  tablat 000FF5                    status 000FD8              e2pext_r@ret 0023  
            e2pext_w@val 0028              e2pext_w@tmp 002E         __end_of_Lcd_Init 7DA0  
        __initialization 784E             __end_of_getd 77F4             __end_of_getu 77DC  
           __end_of_main 7C90         __end_of_i2c_init 77D2         __end_of_i2c_stop 7814  
       __end_of_e2pext_r 7940         __end_of_e2pext_w 7A46         __end_of_e2prom_r 77E8  
       __end_of_e2prom_w 784E              e2prom_w@val 001C                   ??_getd 001C  
                 ??_getu 001C                   ??_main 0030            __activetblptr 000002  
                 ?_delay 001C                   _ADCON0 000FC2                   _ADCON1 000FC1  
                 _EEDATA 000FA8                   _EECON2 000FA7                   ?_rtc_r 001C  
              ??_Lcd_Cmd 001C                ??_Lcd_Out 0022       __size_of_i2c_start 0010  
                 _i2c_rb 7940                   _i2c_wb 787C              ?_Lcd_Chr_CP 001C  
                 clear_0 786C                   getd@nn 001C                   getu@nn 001C  
           __pdataCOMRAM 0030                   tblptrh 000FF7                   tblptrl 000FF6  
                 tblptru 000FF8             e2pext_r@addr 0021             e2pext_w@addr 0026  
             __accesstop 0080  __end_of__initialization 7872            ___rparam_used 000001  
         __pcstackCOMRAM 001C            __end_of_delay 7826            __end_of_rtc_r 7BA8  
      __end_of_i2c_start 7804             e2prom_r@addr 001C             e2prom_w@addr 001D  
              ?_Lcd_Init 001C                  ??_delay 001C                  ??_rtc_r 0021  
    __size_of_Lcd_Chr_CP 0134                ?_i2c_init 001C                ?_i2c_stop 001C  
              ?_e2pext_r 0021                ?_e2pext_w 0026                ?_e2prom_r 001C  
              ?_e2prom_w 001C                  ?_i2c_rb 001C                  ?_i2c_wb 001C  
             ??_Lcd_Init 001F                  i2c_rb@i 0020                  i2c_wb@i 001F  
             ??_i2c_init 001C                  _Lcd_Cmd 7DA0               ??_i2c_stop 001C  
             ??_e2pext_r 0023               ??_e2pext_w 0029                  _Lcd_Out 7A46  
             ??_e2prom_r 001C               ??_e2prom_w 001D                  __Hparam 0000  
        __size_of_i2c_rb 0082          __size_of_i2c_wb 005C                  __Lparam 0000  
                __pcinit 784E                  __ramtop 0600                  __ptext0 7BA8  
                __ptext1 7AD0                  __ptext2 77D2                  __ptext3 77E8  
                __ptext4 77CA                  __ptext5 7826                  __ptext6 77DC  
                __ptext7 79C2                  __ptext8 78D8                  __ptext9 787C  
   end_of_initialization 7872            __Lmediumconst 0000             ??_Lcd_Chr_CP 001C  
                postinc0 000FEE                _PORTCbits 000F82                _PORTDbits 000F83  
              _PORTEbits 000F84                _TRISCbits 000F94                _TRISDbits 000F95  
              _TRISEbits 000F96       __end_of_Lcd_Chr_CP 8000                i2c_rb@ack 001E  
              i2c_rb@ret 001F                i2c_wb@val 001E           __end_of_i2c_rb 79C2  
         __end_of_i2c_wb 78D8            __pidataCOMRAM 77C8      start_initialization 784E  
              _i2c_start 77F4            Lcd_Out@buffer 0020        __size_of_Lcd_Init 0110  
      __size_of_i2c_init 0008        __size_of_i2c_stop 0010        __size_of_e2pext_r 0068  
      __size_of_e2pext_w 0084                 ??_i2c_rb 001C                 ??_i2c_wb 001C  
      __size_of_e2prom_r 000C        __size_of_e2prom_w 0028              __pbssCOMRAM 0001  
             ?_i2c_start 001C                 ?_Lcd_Cmd 001C                 ?_Lcd_Out 001F  
         __size_of_delay 0012           __size_of_rtc_r 00D8                 _LATDbits 000F8C  
               Lcd_Out@x 001F                 Lcd_Out@y 0022             Lcd_Init@data 0020  
            ??_i2c_start 001C                 _Lcd_Init 7C90              _INTCON2bits 000FF1  
               _i2c_init 77CA                 _i2c_stop 7804                 _e2pext_r 78D8  
               _e2pext_w 79C2                 _e2prom_r 77DC                 _e2prom_w 7826  
       __size_of_Lcd_Cmd 012C         __size_of_Lcd_Out 008A               _EECON1bits 000FA6  
               __Hrparam 0000                 __Lrparam 0000           Lcd_Chr_CP@data 001E  
               __ptext10 7804                 __ptext11 77F4                 __ptext12 7940  
               __ptext13 7814                 __ptext14 7A46                 __ptext15 7ECC  
               __ptext16 7C90                 __ptext17 7DA0              Lcd_Cmd@data 001E  
          __size_of_getd 000C            __size_of_getu 000A            __size_of_main 00E8  
            Lcd_Out@data 0023                 rtc_r@tmp 0021  
