

Microchip MPLAB XC8 Assembler V2.46 build 20240104201356 
                                                                                               Tue Aug 06 17:45:05 2024

Microchip MPLAB XC8 C Compiler v2.46 (Free license) build 20240104201356 Og1 
     1                           	processor	18F4520
     2                           	fnconf	rparam,??,?,0
     3                           	pagewidth 120
     4                           	opt	flic
     5                           	psect	smallconst,global,reloc=2,class=SMALLCONST,delta=1,noexec
     6                           	psect	cinit,global,reloc=2,class=CODE,delta=1
     7                           	psect	bssCOMRAM,global,class=COMRAM,space=1,delta=1,lowdata,noexec
     8                           	psect	cstackCOMRAM,global,class=COMRAM,space=1,delta=1,lowdata,noexec
     9                           	psect	text0,global,reloc=2,class=CODE,delta=1
    10                           	psect	text1,global,reloc=2,class=CODE,delta=1
    11                           	psect	text2,global,reloc=2,class=CODE,delta=1
    12                           	psect	text3,global,reloc=2,class=CODE,delta=1
    13                           	psect	text4,global,reloc=2,class=CODE,delta=1
    14                           	psect	text5,global,reloc=2,class=CODE,delta=1
    15                           	psect	intsave_regs,global,class=BIGRAM,space=1,delta=1,noexec
    16                           	psect	rparam,global,class=COMRAM,space=1,delta=1,noexec
    17                           	psect	idloc,global,abs,ovrld,class=IDLOC,space=5,delta=1,noexec
    18                           	psect	config,global,abs,ovrld,class=CONFIG,space=4,delta=1,noexec
    19   000000                     
    20                           ; Version 2.20
    21                           ; Generated 12/02/2020 GMT
    22                           ; 
    23                           ; Copyright © 2020, Microchip Technology Inc. and its subsidiaries ("Microchip")
    24                           ; All rights reserved.
    25                           ; 
    26                           ; This software is developed by Microchip Technology Inc. and its subsidiaries ("Microch
      +                          ip").
    27                           ; 
    28                           ; Redistribution and use in source and binary forms, with or without modification, are
    29                           ; permitted provided that the following conditions are met:
    30                           ; 
    31                           ;     1. Redistributions of source code must retain the above copyright notice, this lis
      +                          t of
    32                           ;        conditions and the following disclaimer.
    33                           ; 
    34                           ;     2. Redistributions in binary form must reproduce the above copyright notice, this 
      +                          list
    35                           ;        of conditions and the following disclaimer in the documentation and/or other
    36                           ;        materials provided with the distribution.
    37                           ; 
    38                           ;     3. Microchip's name may not be used to endorse or promote products derived from th
      +                          is
    39                           ;        software without specific prior written permission.
    40                           ; 
    41                           ; THIS SOFTWARE IS PROVIDED BY MICROCHIP "AS IS" AND ANY EXPRESS OR IMPLIED WARRANTIES,
    42                           ; INCLUDING, BUT NOT LIMITED TO, THE IMPLIED WARRANTIES OF MERCHANTABILITY AND FITNESS F
      +                          OR
    43                           ; PURPOSE ARE DISCLAIMED.  IN NO EVENT SHALL MICROCHIP BE LIABLE FOR ANY DIRECT, INDIREC
      +                          T,
    44                           ; INCIDENTAL, SPECIAL, EXEMPLARY, OR CONSEQUENTIAL DAMAGES (INCLUDING BUT NOT LIMITED TO
    45                           ; PROCUREMENT OF SUBSTITUTE GOODS OR SERVICES; LOSS OF USE, DATA OR PROFITS; OR BUSINESS
    46                           ; INTERRUPTION) HOWSOEVER CAUSED AND ON ANY THEORY OF LIABILITY, WHETHER IN CONTRACT, ST
      +                          RICT
    47                           ; LIABILITY, OR TORT (INCLUDING NEGLIGENCE OR OTHERWISE) ARISING IN ANY WAY OUT OF THE U
      +                          SE OF
    48                           ; THIS SOFTWARE, EVEN IF ADVISED OF THE POSSIBILITY OF SUCH DAMAGE.
    49                           ; 
    50                           ; 
    51                           ; Code-generator required, PIC18F4520 Definitions
    52                           ; 
    53                           ; SFR Addresses
    54   000000                     _PORTA	set	3968
    55   000000                     _PORTBbits	set	3969
    56   000000                     _LATBbits	set	3978
    57   000000                     _PORTDbits	set	3971
    58   000000                     _PORTEbits	set	3972
    59   000000                     _TRISEbits	set	3990
    60   000000                     _TRISDbits	set	3989
    61   000000                     _LATB	set	3978
    62   000000                     _PORTB	set	3969
    63   000000                     _INTCON2bits	set	4081
    64   000000                     _LATE	set	3981
    65   000000                     _LATD	set	3980
    66   000000                     _LATC	set	3979
    67   000000                     _TRISA	set	3986
    68   000000                     _ADCON1	set	4033
    69   000000                     _ADCON0	set	4034
    70   000000                     _PORTE	set	3972
    71   000000                     _PORTD	set	3971
    72   000000                     _PORTC	set	3970
    73   000000                     _LATA	set	3977
    74   000000                     _INTCON3	set	4080
    75   000000                     _INTCON2	set	4081
    76   000000                     _INTCON	set	4082
    77   000000                     _TRISE	set	3990
    78   000000                     _TRISD	set	3989
    79   000000                     _TRISC	set	3988
    80   000000                     _TRISB	set	3987
    81                           
    82                           	psect	smallconst
    83   000600                     __psmallconst:
    84                           	callstack 0
    85   000600  00                 	db	0
    86   000601                     STR_1:
    87   000601  20                 	db	32
    88   000602  20                 	db	32
    89   000603  41                 	db	65	;'A'
    90   000604  55                 	db	85	;'U'
    91   000605  54                 	db	84	;'T'
    92   000606  20                 	db	32
    93   000607  20                 	db	32
    94   000608  43                 	db	67	;'C'
    95   000609  41                 	db	65	;'A'
    96   00060A  54                 	db	84	;'T'
    97   00060B  33                 	db	51	;'3'
    98   00060C  34                 	db	52	;'4'
    99   00060D  31                 	db	49	;'1'
   100   00060E  20                 	db	32
   101   00060F  20                 	db	32
   102   000610  20                 	db	32
   103   000611  00                 	db	0
   104   000612                     STR_2:
   105   000612  53                 	db	83	;'S'
   106   000613  69                 	db	105	;'i'
   107   000614  73                 	db	115	;'s'
   108   000615  74                 	db	116	;'t'
   109   000616  2E                 	db	46
   110   000617  20                 	db	32
   111   000618  45                 	db	69	;'E'
   112   000619  6D                 	db	109	;'m'
   113   00061A  62                 	db	98	;'b'
   114   00061B  61                 	db	97	;'a'
   115   00061C  72                 	db	114	;'r'
   116   00061D  63                 	db	99	;'c'
   117   00061E  61                 	db	97	;'a'
   118   00061F  64                 	db	100	;'d'
   119   000620  6F                 	db	111	;'o'
   120   000621  73                 	db	115	;'s'
   121   000622  00                 	db	0
   122   000623                     STR_3:
   123   000623  54                 	db	84	;'T'
   124   000624  65                 	db	101	;'e'
   125   000625  63                 	db	99	;'c'
   126   000626  6C                 	db	108	;'l'
   127   000627  61                 	db	97	;'a'
   128   000628  3A                 	db	58	;':'
   129   000629  20                 	db	32
   130   00062A  20                 	db	32
   131   00062B  20                 	db	32
   132   00062C  20                 	db	32
   133   00062D  20                 	db	32
   134   00062E  20                 	db	32
   135   00062F  20                 	db	32
   136   000630  20                 	db	32
   137   000631  20                 	db	32
   138   000632  00                 	db	0
   139   000633                     STR_15:
   140   000633  2D                 	db	45
   141   000634  00                 	db	0
   142   000635                     STR_13:
   143   000635  30                 	db	48	;'0'
   144   000636  00                 	db	0
   145   000637                     STR_4:
   146   000637  31                 	db	49	;'1'
   147   000638  00                 	db	0
   148   000639                     STR_5:
   149   000639  32                 	db	50	;'2'
   150   00063A  00                 	db	0
   151   00063B                     STR_6:
   152   00063B  33                 	db	51	;'3'
   153   00063C  00                 	db	0
   154   00063D                     STR_7:
   155   00063D  34                 	db	52	;'4'
   156   00063E  00                 	db	0
   157   00063F                     STR_8:
   158   00063F  35                 	db	53	;'5'
   159   000640  00                 	db	0
   160   000641                     STR_9:
   161   000641  36                 	db	54	;'6'
   162   000642  00                 	db	0
   163   000643                     STR_10:
   164   000643  37                 	db	55	;'7'
   165   000644  00                 	db	0
   166   000645                     STR_11:
   167   000645  38                 	db	56	;'8'
   168   000646  00                 	db	0
   169   000647                     STR_12:
   170   000647  39                 	db	57	;'9'
   171   000648  00                 	db	0
   172   000649                     STR_16:
   173   000649  41                 	db	65	;'A'
   174   00064A  00                 	db	0
   175   00064B                     STR_17:
   176   00064B  42                 	db	66	;'B'
   177   00064C  00                 	db	0
   178   00064D                     STR_18:
   179   00064D  43                 	db	67	;'C'
   180   00064E  00                 	db	0
   181   00064F                     STR_19:
   182   00064F  44                 	db	68	;'D'
   183   000650  00                 	db	0
   184   000651                     STR_20:
   185   000651  46                 	db	70	;'F'
   186   000652  00                 	db	0
   187   000653                     STR_14:
   188   000653  78                 	db	120	;'x'
   189   000654  00                 	db	0
   190   000655  00                 	db	0	; dummy byte at the end
   191   000000                     
   192                           ; #config settings
   193                           
   194                           	psect	cinit
   195   00122C                     __pcinit:
   196                           	callstack 0
   197   00122C                     start_initialization:
   198                           	callstack 0
   199   00122C                     __initialization:
   200                           	callstack 0
   201                           
   202                           ; Clear objects allocated to COMRAM (1 bytes)
   203   00122C  6A0A               	clrf	__pbssCOMRAM& (0+255),c
   204   00122E                     end_of_initialization:
   205                           	callstack 0
   206   00122E                     __end_of__initialization:
   207                           	callstack 0
   208   00122E  0E00               	movlw	low (__Lmediumconst shr (0+16))
   209   001230  6EF8               	movwf	tblptru,c
   210   001232  0100               	movlb	0
   211   001234  EF2B  F003         	goto	_main	;jump to C main() function
   212                           
   213                           	psect	bssCOMRAM
   214   00000A                     __pbssCOMRAM:
   215                           	callstack 0
   216   00000A                     _tecla:
   217                           	callstack 0
   218   00000A                     	ds	1
   219                           
   220                           	psect	cstackCOMRAM
   221   000001                     __pcstackCOMRAM:
   222                           	callstack 0
   223   000001                     ??_Lcd_Cmd:
   224   000001                     ??_Lcd_Chr_CP:
   225   000001                     ??_tc_tecla:
   226   000001                     
   227                           ; 1 bytes @ 0x0
   228   000001                     	ds	1
   229   000002                     tc_tecla@key:
   230                           	callstack 0
   231                           
   232                           ; 1 bytes @ 0x1
   233   000002                     	ds	1
   234   000003                     Lcd_Chr_CP@data:
   235                           	callstack 0
   236   000003                     Lcd_Cmd@data:
   237                           	callstack 0
   238                           
   239                           ; 1 bytes @ 0x2
   240   000003                     	ds	1
   241   000004                     ??_Lcd_Init:
   242   000004                     Lcd_Out@x:
   243                           	callstack 0
   244                           
   245                           ; 1 bytes @ 0x3
   246   000004                     	ds	1
   247   000005                     Lcd_Init@data:
   248                           	callstack 0
   249   000005                     Lcd_Out@buffer:
   250                           	callstack 0
   251                           
   252                           ; 1 bytes @ 0x4
   253   000005                     	ds	1
   254   000006                     Lcd_Out@y:
   255                           	callstack 0
   256                           
   257                           ; 1 bytes @ 0x5
   258   000006                     	ds	1
   259   000007                     Lcd_Out@data:
   260                           	callstack 0
   261                           
   262                           ; 1 bytes @ 0x6
   263   000007                     	ds	1
   264   000008                     ??_main:
   265                           
   266                           ; 1 bytes @ 0x7
   267   000008                     	ds	2
   268                           
   269 ;;
   270 ;;Main: autosize = 0, tempsize = 2, incstack = 0, save=0
   271 ;;
   272 ;; *************** function _main *****************
   273 ;; Defined at:
   274 ;;		line 25 in file "mainLCDtecl2.c"
   275 ;; Parameters:    Size  Location     Type
   276 ;;		None
   277 ;; Auto vars:     Size  Location     Type
   278 ;;		None
   279 ;; Return value:  Size  Location     Type
   280 ;;                  1    wreg      void 
   281 ;; Registers used:
   282 ;;		wreg, status,2, status,0, tblptrl, tblptrh, tblptru, cstack
   283 ;; Tracked objects:
   284 ;;		On entry : 0/0
   285 ;;		On exit  : 0/0
   286 ;;		Unchanged: 0/0
   287 ;; Data sizes:     COMRAM   BANK0   BANK1   BANK2   BANK3   BANK4   BANK5
   288 ;;      Params:         0       0       0       0       0       0       0
   289 ;;      Locals:         0       0       0       0       0       0       0
   290 ;;      Temps:          2       0       0       0       0       0       0
   291 ;;      Totals:         2       0       0       0       0       0       0
   292 ;;Total ram usage:        2 bytes
   293 ;; Hardware stack levels required when called: 2
   294 ;; This function calls:
   295 ;;		_Lcd_Cmd
   296 ;;		_Lcd_Init
   297 ;;		_Lcd_Out
   298 ;;		_tc_tecla
   299 ;; This function is called by:
   300 ;;		Startup code after reset
   301 ;; This function uses a non-reentrant model
   302 ;;
   303                           
   304                           	psect	text0
   305   000656                     __ptext0:
   306                           	callstack 0
   307   000656                     _main:
   308                           	callstack 29
   309   000656                     
   310                           ;mainLCDtecl2.c: 27: ADCON0 = 0b00000000;
   311   000656  0E00               	movlw	0
   312   000658  6EC2               	movwf	194,c	;volatile
   313                           
   314                           ;mainLCDtecl2.c: 28: ADCON1 = 0b00001111;
   315   00065A  0E0F               	movlw	15
   316   00065C  6EC1               	movwf	193,c	;volatile
   317                           
   318                           ;mainLCDtecl2.c: 30: INTCON = 0b00000000;
   319   00065E  0E00               	movlw	0
   320   000660  6EF2               	movwf	242,c	;volatile
   321                           
   322                           ;mainLCDtecl2.c: 31: INTCON2 = 0b10000000;
   323   000662  0E80               	movlw	128
   324   000664  6EF1               	movwf	241,c	;volatile
   325   000666                     
   326                           ;mainLCDtecl2.c: 32: INTCON2bits.RBPU = 1;
   327   000666  8EF1               	bsf	241,7,c	;volatile
   328                           
   329                           ;mainLCDtecl2.c: 33: INTCON3 = 0b00000000;
   330   000668  0E00               	movlw	0
   331   00066A  6EF0               	movwf	240,c	;volatile
   332                           
   333                           ;mainLCDtecl2.c: 35: TRISA = 0b00000000;
   334   00066C  0E00               	movlw	0
   335   00066E  6E92               	movwf	146,c	;volatile
   336                           
   337                           ;mainLCDtecl2.c: 39: TRISB = 0b00001111;
   338   000670  0E0F               	movlw	15
   339   000672  6E93               	movwf	147,c	;volatile
   340                           
   341                           ;mainLCDtecl2.c: 41: TRISC = 0b00000000;
   342   000674  0E00               	movlw	0
   343   000676  6E94               	movwf	148,c	;volatile
   344                           
   345                           ;mainLCDtecl2.c: 42: TRISD = 0b00001111;
   346   000678  0E0F               	movlw	15
   347   00067A  6E95               	movwf	149,c	;volatile
   348                           
   349                           ;mainLCDtecl2.c: 43: TRISE = 0b00000000;
   350   00067C  0E00               	movlw	0
   351   00067E  6E96               	movwf	150,c	;volatile
   352                           
   353                           ;mainLCDtecl2.c: 45: PORTA = 0;
   354   000680  0E00               	movlw	0
   355   000682  6E80               	movwf	128,c	;volatile
   356                           
   357                           ;mainLCDtecl2.c: 46: LATA = 0;
   358   000684  0E00               	movlw	0
   359   000686  6E89               	movwf	137,c	;volatile
   360                           
   361                           ;mainLCDtecl2.c: 47: PORTB = 0;
   362   000688  0E00               	movlw	0
   363   00068A  6E81               	movwf	129,c	;volatile
   364                           
   365                           ;mainLCDtecl2.c: 48: LATB = 0b00000111;
   366   00068C  0E07               	movlw	7
   367   00068E  6E8A               	movwf	138,c	;volatile
   368                           
   369                           ;mainLCDtecl2.c: 49: PORTC = 0;
   370   000690  0E00               	movlw	0
   371   000692  6E82               	movwf	130,c	;volatile
   372                           
   373                           ;mainLCDtecl2.c: 50: LATC = 0;
   374   000694  0E00               	movlw	0
   375   000696  6E8B               	movwf	139,c	;volatile
   376                           
   377                           ;mainLCDtecl2.c: 51: PORTD = 0;
   378   000698  0E00               	movlw	0
   379   00069A  6E83               	movwf	131,c	;volatile
   380                           
   381                           ;mainLCDtecl2.c: 52: LATD = 0;
   382   00069C  0E00               	movlw	0
   383   00069E  6E8C               	movwf	140,c	;volatile
   384                           
   385                           ;mainLCDtecl2.c: 53: PORTE = 0;
   386   0006A0  0E00               	movlw	0
   387   0006A2  6E84               	movwf	132,c	;volatile
   388                           
   389                           ;mainLCDtecl2.c: 54: LATE = 0;
   390   0006A4  0E00               	movlw	0
   391   0006A6  6E8D               	movwf	141,c	;volatile
   392   0006A8                     
   393                           ;mainLCDtecl2.c: 56: Lcd_Init();
   394   0006A8  EC45  F008         	call	_Lcd_Init	;wreg free
   395   0006AC                     
   396                           ;mainLCDtecl2.c: 57: _delay((unsigned long)((100)*(8000000/4000.0)));
   397   0006AC  0E02               	movlw	2
   398   0006AE  6E09               	movwf	(??_main+1)^0,c
   399   0006B0  0E04               	movlw	4
   400   0006B2  6E08               	movwf	??_main^0,c
   401   0006B4  0EBA               	movlw	186
   402   0006B6                     u777:
   403   0006B6  2EE8               	decfsz	wreg,f,c
   404   0006B8  D7FE               	bra	u777
   405   0006BA  2E08               	decfsz	??_main^0,f,c
   406   0006BC  D7FC               	bra	u777
   407   0006BE  2E09               	decfsz	(??_main+1)^0,f,c
   408   0006C0  D7FA               	bra	u777
   409   0006C2  D000               	nop2	
   410   0006C4                     
   411                           ;mainLCDtecl2.c: 58: Lcd_Cmd(12);
   412   0006C4  0E0C               	movlw	12
   413   0006C6  ECAF  F007         	call	_Lcd_Cmd
   414   0006CA                     
   415                           ;mainLCDtecl2.c: 59: Lcd_Out(1, 0, "  AUT  CAT341   ");
   416   0006CA  0E00               	movlw	0
   417   0006CC  6E04               	movwf	Lcd_Out@x^0,c
   418   0006CE  0E01               	movlw	low STR_1
   419   0006D0  6E05               	movwf	Lcd_Out@buffer^0,c
   420   0006D2  0E01               	movlw	1
   421   0006D4  ECCF  F008         	call	_Lcd_Out
   422   0006D8                     
   423                           ;mainLCDtecl2.c: 60: Lcd_Out(2, 0, "Sist. Embarcados");
   424   0006D8  0E00               	movlw	0
   425   0006DA  6E04               	movwf	Lcd_Out@x^0,c
   426   0006DC  0E12               	movlw	low STR_2
   427   0006DE  6E05               	movwf	Lcd_Out@buffer^0,c
   428   0006E0  0E02               	movlw	2
   429   0006E2  ECCF  F008         	call	_Lcd_Out
   430   0006E6                     
   431                           ;mainLCDtecl2.c: 61: _delay((unsigned long)((1000)*(8000000/4000.0)));
   432   0006E6  0E0B               	movlw	11
   433   0006E8  6E09               	movwf	(??_main+1)^0,c
   434   0006EA  0E26               	movlw	38
   435   0006EC  6E08               	movwf	??_main^0,c
   436   0006EE  0E5E               	movlw	94
   437   0006F0                     u787:
   438   0006F0  2EE8               	decfsz	wreg,f,c
   439   0006F2  D7FE               	bra	u787
   440   0006F4  2E08               	decfsz	??_main^0,f,c
   441   0006F6  D7FC               	bra	u787
   442   0006F8  2E09               	decfsz	(??_main+1)^0,f,c
   443   0006FA  D7FA               	bra	u787
   444   0006FC                     
   445                           ;mainLCDtecl2.c: 63: Lcd_Cmd(1);
   446   0006FC  0E01               	movlw	1
   447   0006FE  ECAF  F007         	call	_Lcd_Cmd
   448   000702                     
   449                           ;mainLCDtecl2.c: 64: _delay((unsigned long)((100)*(8000000/4000.0)));
   450   000702  0E02               	movlw	2
   451   000704  6E09               	movwf	(??_main+1)^0,c
   452   000706  0E04               	movlw	4
   453   000708  6E08               	movwf	??_main^0,c
   454   00070A  0EBA               	movlw	186
   455   00070C                     u797:
   456   00070C  2EE8               	decfsz	wreg,f,c
   457   00070E  D7FE               	bra	u797
   458   000710  2E08               	decfsz	??_main^0,f,c
   459   000712  D7FC               	bra	u797
   460   000714  2E09               	decfsz	(??_main+1)^0,f,c
   461   000716  D7FA               	bra	u797
   462   000718  D000               	nop2	
   463   00071A                     
   464                           ;mainLCDtecl2.c: 65: Lcd_Out(1, 0, "Tecla:         ");
   465   00071A  0E00               	movlw	0
   466   00071C  6E04               	movwf	Lcd_Out@x^0,c
   467   00071E  0E23               	movlw	low STR_3
   468   000720  6E05               	movwf	Lcd_Out@buffer^0,c
   469   000722  0E01               	movlw	1
   470   000724  ECCF  F008         	call	_Lcd_Out
   471   000728                     l112:
   472   000728  0004               	clrwdt		;# 
   473   00072A                     
   474                           ;mainLCDtecl2.c: 73: tecla = tc_tecla();
   475   00072A  EC78  F005         	call	_tc_tecla	;wreg free
   476   00072E  6E0A               	movwf	_tecla^0,c
   477   000730                     
   478                           ;mainLCDtecl2.c: 75: if (tecla == '1')
   479   000730  0E31               	movlw	49
   480   000732  180A               	xorwf	_tecla^0,w,c
   481   000734  A4D8               	btfss	status,2,c
   482   000736  EF9F  F003         	goto	u601
   483   00073A  EFA1  F003         	goto	u600
   484   00073E                     u601:
   485   00073E  EFB4  F003         	goto	l1379
   486   000742                     u600:
   487   000742                     
   488                           ;mainLCDtecl2.c: 76: {;mainLCDtecl2.c: 77: Lcd_Out(2, 0, "1");
   489   000742  0E00               	movlw	0
   490   000744  6E04               	movwf	Lcd_Out@x^0,c
   491   000746  0E37               	movlw	low STR_4
   492   000748  6E05               	movwf	Lcd_Out@buffer^0,c
   493   00074A  0E02               	movlw	2
   494   00074C  ECCF  F008         	call	_Lcd_Out
   495   000750                     
   496                           ;mainLCDtecl2.c: 78: _delay((unsigned long)((100)*(8000000/4000.0)));
   497   000750  0E02               	movlw	2
   498   000752  6E09               	movwf	(??_main+1)^0,c
   499   000754  0E04               	movlw	4
   500   000756  6E08               	movwf	??_main^0,c
   501   000758  0EBA               	movlw	186
   502   00075A                     u807:
   503   00075A  2EE8               	decfsz	wreg,f,c
   504   00075C  D7FE               	bra	u807
   505   00075E  2E08               	decfsz	??_main^0,f,c
   506   000760  D7FC               	bra	u807
   507   000762  2E09               	decfsz	(??_main+1)^0,f,c
   508   000764  D7FA               	bra	u807
   509   000766  D000               	nop2	
   510   000768                     l1379:
   511                           
   512                           ;mainLCDtecl2.c: 79: };mainLCDtecl2.c: 80: if (tecla == '2')
   513   000768  0E32               	movlw	50
   514   00076A  180A               	xorwf	_tecla^0,w,c
   515   00076C  A4D8               	btfss	status,2,c
   516   00076E  EFBB  F003         	goto	u611
   517   000772  EFBD  F003         	goto	u610
   518   000776                     u611:
   519   000776  EFD0  F003         	goto	l1385
   520   00077A                     u610:
   521   00077A                     
   522                           ;mainLCDtecl2.c: 81: {;mainLCDtecl2.c: 82: Lcd_Out(2, 0, "2");
   523   00077A  0E00               	movlw	0
   524   00077C  6E04               	movwf	Lcd_Out@x^0,c
   525   00077E  0E39               	movlw	low STR_5
   526   000780  6E05               	movwf	Lcd_Out@buffer^0,c
   527   000782  0E02               	movlw	2
   528   000784  ECCF  F008         	call	_Lcd_Out
   529   000788                     
   530                           ;mainLCDtecl2.c: 83: _delay((unsigned long)((100)*(8000000/4000.0)));
   531   000788  0E02               	movlw	2
   532   00078A  6E09               	movwf	(??_main+1)^0,c
   533   00078C  0E04               	movlw	4
   534   00078E  6E08               	movwf	??_main^0,c
   535   000790  0EBA               	movlw	186
   536   000792                     u817:
   537   000792  2EE8               	decfsz	wreg,f,c
   538   000794  D7FE               	bra	u817
   539   000796  2E08               	decfsz	??_main^0,f,c
   540   000798  D7FC               	bra	u817
   541   00079A  2E09               	decfsz	(??_main+1)^0,f,c
   542   00079C  D7FA               	bra	u817
   543   00079E  D000               	nop2	
   544   0007A0                     l1385:
   545                           
   546                           ;mainLCDtecl2.c: 84: };mainLCDtecl2.c: 85: if (tecla == '3')
   547   0007A0  0E33               	movlw	51
   548   0007A2  180A               	xorwf	_tecla^0,w,c
   549   0007A4  A4D8               	btfss	status,2,c
   550   0007A6  EFD7  F003         	goto	u621
   551   0007AA  EFD9  F003         	goto	u620
   552   0007AE                     u621:
   553   0007AE  EFEC  F003         	goto	l1391
   554   0007B2                     u620:
   555   0007B2                     
   556                           ;mainLCDtecl2.c: 86: {;mainLCDtecl2.c: 87: Lcd_Out(2, 0, "3");
   557   0007B2  0E00               	movlw	0
   558   0007B4  6E04               	movwf	Lcd_Out@x^0,c
   559   0007B6  0E3B               	movlw	low STR_6
   560   0007B8  6E05               	movwf	Lcd_Out@buffer^0,c
   561   0007BA  0E02               	movlw	2
   562   0007BC  ECCF  F008         	call	_Lcd_Out
   563   0007C0                     
   564                           ;mainLCDtecl2.c: 88: _delay((unsigned long)((100)*(8000000/4000.0)));
   565   0007C0  0E02               	movlw	2
   566   0007C2  6E09               	movwf	(??_main+1)^0,c
   567   0007C4  0E04               	movlw	4
   568   0007C6  6E08               	movwf	??_main^0,c
   569   0007C8  0EBA               	movlw	186
   570   0007CA                     u827:
   571   0007CA  2EE8               	decfsz	wreg,f,c
   572   0007CC  D7FE               	bra	u827
   573   0007CE  2E08               	decfsz	??_main^0,f,c
   574   0007D0  D7FC               	bra	u827
   575   0007D2  2E09               	decfsz	(??_main+1)^0,f,c
   576   0007D4  D7FA               	bra	u827
   577   0007D6  D000               	nop2	
   578   0007D8                     l1391:
   579                           
   580                           ;mainLCDtecl2.c: 89: };mainLCDtecl2.c: 90: if (tecla == '4')
   581   0007D8  0E34               	movlw	52
   582   0007DA  180A               	xorwf	_tecla^0,w,c
   583   0007DC  A4D8               	btfss	status,2,c
   584   0007DE  EFF3  F003         	goto	u631
   585   0007E2  EFF5  F003         	goto	u630
   586   0007E6                     u631:
   587   0007E6  EF08  F004         	goto	l1397
   588   0007EA                     u630:
   589   0007EA                     
   590                           ;mainLCDtecl2.c: 91: {;mainLCDtecl2.c: 92: Lcd_Out(2, 0, "4");
   591   0007EA  0E00               	movlw	0
   592   0007EC  6E04               	movwf	Lcd_Out@x^0,c
   593   0007EE  0E3D               	movlw	low STR_7
   594   0007F0  6E05               	movwf	Lcd_Out@buffer^0,c
   595   0007F2  0E02               	movlw	2
   596   0007F4  ECCF  F008         	call	_Lcd_Out
   597   0007F8                     
   598                           ;mainLCDtecl2.c: 93: _delay((unsigned long)((100)*(8000000/4000.0)));
   599   0007F8  0E02               	movlw	2
   600   0007FA  6E09               	movwf	(??_main+1)^0,c
   601   0007FC  0E04               	movlw	4
   602   0007FE  6E08               	movwf	??_main^0,c
   603   000800  0EBA               	movlw	186
   604   000802                     u837:
   605   000802  2EE8               	decfsz	wreg,f,c
   606   000804  D7FE               	bra	u837
   607   000806  2E08               	decfsz	??_main^0,f,c
   608   000808  D7FC               	bra	u837
   609   00080A  2E09               	decfsz	(??_main+1)^0,f,c
   610   00080C  D7FA               	bra	u837
   611   00080E  D000               	nop2	
   612   000810                     l1397:
   613                           
   614                           ;mainLCDtecl2.c: 94: };mainLCDtecl2.c: 95: if (tecla == '5')
   615   000810  0E35               	movlw	53
   616   000812  180A               	xorwf	_tecla^0,w,c
   617   000814  A4D8               	btfss	status,2,c
   618   000816  EF0F  F004         	goto	u641
   619   00081A  EF11  F004         	goto	u640
   620   00081E                     u641:
   621   00081E  EF24  F004         	goto	l1403
   622   000822                     u640:
   623   000822                     
   624                           ;mainLCDtecl2.c: 96: {;mainLCDtecl2.c: 97: Lcd_Out(2, 0, "5");
   625   000822  0E00               	movlw	0
   626   000824  6E04               	movwf	Lcd_Out@x^0,c
   627   000826  0E3F               	movlw	low STR_8
   628   000828  6E05               	movwf	Lcd_Out@buffer^0,c
   629   00082A  0E02               	movlw	2
   630   00082C  ECCF  F008         	call	_Lcd_Out
   631   000830                     
   632                           ;mainLCDtecl2.c: 98: _delay((unsigned long)((100)*(8000000/4000.0)));
   633   000830  0E02               	movlw	2
   634   000832  6E09               	movwf	(??_main+1)^0,c
   635   000834  0E04               	movlw	4
   636   000836  6E08               	movwf	??_main^0,c
   637   000838  0EBA               	movlw	186
   638   00083A                     u847:
   639   00083A  2EE8               	decfsz	wreg,f,c
   640   00083C  D7FE               	bra	u847
   641   00083E  2E08               	decfsz	??_main^0,f,c
   642   000840  D7FC               	bra	u847
   643   000842  2E09               	decfsz	(??_main+1)^0,f,c
   644   000844  D7FA               	bra	u847
   645   000846  D000               	nop2	
   646   000848                     l1403:
   647                           
   648                           ;mainLCDtecl2.c: 99: };mainLCDtecl2.c: 100: if (tecla == '6')
   649   000848  0E36               	movlw	54
   650   00084A  180A               	xorwf	_tecla^0,w,c
   651   00084C  A4D8               	btfss	status,2,c
   652   00084E  EF2B  F004         	goto	u651
   653   000852  EF2D  F004         	goto	u650
   654   000856                     u651:
   655   000856  EF40  F004         	goto	l1409
   656   00085A                     u650:
   657   00085A                     
   658                           ;mainLCDtecl2.c: 101: {;mainLCDtecl2.c: 102: Lcd_Out(2, 0, "6");
   659   00085A  0E00               	movlw	0
   660   00085C  6E04               	movwf	Lcd_Out@x^0,c
   661   00085E  0E41               	movlw	low STR_9
   662   000860  6E05               	movwf	Lcd_Out@buffer^0,c
   663   000862  0E02               	movlw	2
   664   000864  ECCF  F008         	call	_Lcd_Out
   665   000868                     
   666                           ;mainLCDtecl2.c: 103: _delay((unsigned long)((100)*(8000000/4000.0)));
   667   000868  0E02               	movlw	2
   668   00086A  6E09               	movwf	(??_main+1)^0,c
   669   00086C  0E04               	movlw	4
   670   00086E  6E08               	movwf	??_main^0,c
   671   000870  0EBA               	movlw	186
   672   000872                     u857:
   673   000872  2EE8               	decfsz	wreg,f,c
   674   000874  D7FE               	bra	u857
   675   000876  2E08               	decfsz	??_main^0,f,c
   676   000878  D7FC               	bra	u857
   677   00087A  2E09               	decfsz	(??_main+1)^0,f,c
   678   00087C  D7FA               	bra	u857
   679   00087E  D000               	nop2	
   680   000880                     l1409:
   681                           
   682                           ;mainLCDtecl2.c: 104: };mainLCDtecl2.c: 105: if (tecla == '7')
   683   000880  0E37               	movlw	55
   684   000882  180A               	xorwf	_tecla^0,w,c
   685   000884  A4D8               	btfss	status,2,c
   686   000886  EF47  F004         	goto	u661
   687   00088A  EF49  F004         	goto	u660
   688   00088E                     u661:
   689   00088E  EF5C  F004         	goto	l1415
   690   000892                     u660:
   691   000892                     
   692                           ;mainLCDtecl2.c: 106: {;mainLCDtecl2.c: 107: Lcd_Out(2, 0, "7");
   693   000892  0E00               	movlw	0
   694   000894  6E04               	movwf	Lcd_Out@x^0,c
   695   000896  0E43               	movlw	low STR_10
   696   000898  6E05               	movwf	Lcd_Out@buffer^0,c
   697   00089A  0E02               	movlw	2
   698   00089C  ECCF  F008         	call	_Lcd_Out
   699   0008A0                     
   700                           ;mainLCDtecl2.c: 108: _delay((unsigned long)((100)*(8000000/4000.0)));
   701   0008A0  0E02               	movlw	2
   702   0008A2  6E09               	movwf	(??_main+1)^0,c
   703   0008A4  0E04               	movlw	4
   704   0008A6  6E08               	movwf	??_main^0,c
   705   0008A8  0EBA               	movlw	186
   706   0008AA                     u867:
   707   0008AA  2EE8               	decfsz	wreg,f,c
   708   0008AC  D7FE               	bra	u867
   709   0008AE  2E08               	decfsz	??_main^0,f,c
   710   0008B0  D7FC               	bra	u867
   711   0008B2  2E09               	decfsz	(??_main+1)^0,f,c
   712   0008B4  D7FA               	bra	u867
   713   0008B6  D000               	nop2	
   714   0008B8                     l1415:
   715                           
   716                           ;mainLCDtecl2.c: 109: };mainLCDtecl2.c: 110: if (tecla == '8')
   717   0008B8  0E38               	movlw	56
   718   0008BA  180A               	xorwf	_tecla^0,w,c
   719   0008BC  A4D8               	btfss	status,2,c
   720   0008BE  EF63  F004         	goto	u671
   721   0008C2  EF65  F004         	goto	u670
   722   0008C6                     u671:
   723   0008C6  EF78  F004         	goto	l1421
   724   0008CA                     u670:
   725   0008CA                     
   726                           ;mainLCDtecl2.c: 111: {;mainLCDtecl2.c: 112: Lcd_Out(2, 0, "8");
   727   0008CA  0E00               	movlw	0
   728   0008CC  6E04               	movwf	Lcd_Out@x^0,c
   729   0008CE  0E45               	movlw	low STR_11
   730   0008D0  6E05               	movwf	Lcd_Out@buffer^0,c
   731   0008D2  0E02               	movlw	2
   732   0008D4  ECCF  F008         	call	_Lcd_Out
   733   0008D8                     
   734                           ;mainLCDtecl2.c: 113: _delay((unsigned long)((100)*(8000000/4000.0)));
   735   0008D8  0E02               	movlw	2
   736   0008DA  6E09               	movwf	(??_main+1)^0,c
   737   0008DC  0E04               	movlw	4
   738   0008DE  6E08               	movwf	??_main^0,c
   739   0008E0  0EBA               	movlw	186
   740   0008E2                     u877:
   741   0008E2  2EE8               	decfsz	wreg,f,c
   742   0008E4  D7FE               	bra	u877
   743   0008E6  2E08               	decfsz	??_main^0,f,c
   744   0008E8  D7FC               	bra	u877
   745   0008EA  2E09               	decfsz	(??_main+1)^0,f,c
   746   0008EC  D7FA               	bra	u877
   747   0008EE  D000               	nop2	
   748   0008F0                     l1421:
   749                           
   750                           ;mainLCDtecl2.c: 114: };mainLCDtecl2.c: 115: if (tecla == '9')
   751   0008F0  0E39               	movlw	57
   752   0008F2  180A               	xorwf	_tecla^0,w,c
   753   0008F4  A4D8               	btfss	status,2,c
   754   0008F6  EF7F  F004         	goto	u681
   755   0008FA  EF81  F004         	goto	u680
   756   0008FE                     u681:
   757   0008FE  EF94  F004         	goto	l1427
   758   000902                     u680:
   759   000902                     
   760                           ;mainLCDtecl2.c: 116: {;mainLCDtecl2.c: 117: Lcd_Out(2, 0, "9");
   761   000902  0E00               	movlw	0
   762   000904  6E04               	movwf	Lcd_Out@x^0,c
   763   000906  0E47               	movlw	low STR_12
   764   000908  6E05               	movwf	Lcd_Out@buffer^0,c
   765   00090A  0E02               	movlw	2
   766   00090C  ECCF  F008         	call	_Lcd_Out
   767   000910                     
   768                           ;mainLCDtecl2.c: 118: _delay((unsigned long)((100)*(8000000/4000.0)));
   769   000910  0E02               	movlw	2
   770   000912  6E09               	movwf	(??_main+1)^0,c
   771   000914  0E04               	movlw	4
   772   000916  6E08               	movwf	??_main^0,c
   773   000918  0EBA               	movlw	186
   774   00091A                     u887:
   775   00091A  2EE8               	decfsz	wreg,f,c
   776   00091C  D7FE               	bra	u887
   777   00091E  2E08               	decfsz	??_main^0,f,c
   778   000920  D7FC               	bra	u887
   779   000922  2E09               	decfsz	(??_main+1)^0,f,c
   780   000924  D7FA               	bra	u887
   781   000926  D000               	nop2	
   782   000928                     l1427:
   783                           
   784                           ;mainLCDtecl2.c: 119: };mainLCDtecl2.c: 120: if (tecla == '0')
   785   000928  0E30               	movlw	48
   786   00092A  180A               	xorwf	_tecla^0,w,c
   787   00092C  A4D8               	btfss	status,2,c
   788   00092E  EF9B  F004         	goto	u691
   789   000932  EF9D  F004         	goto	u690
   790   000936                     u691:
   791   000936  EFB0  F004         	goto	l1433
   792   00093A                     u690:
   793   00093A                     
   794                           ;mainLCDtecl2.c: 121: {;mainLCDtecl2.c: 122: Lcd_Out(2, 0, "0");
   795   00093A  0E00               	movlw	0
   796   00093C  6E04               	movwf	Lcd_Out@x^0,c
   797   00093E  0E35               	movlw	low STR_13
   798   000940  6E05               	movwf	Lcd_Out@buffer^0,c
   799   000942  0E02               	movlw	2
   800   000944  ECCF  F008         	call	_Lcd_Out
   801   000948                     
   802                           ;mainLCDtecl2.c: 123: _delay((unsigned long)((100)*(8000000/4000.0)));
   803   000948  0E02               	movlw	2
   804   00094A  6E09               	movwf	(??_main+1)^0,c
   805   00094C  0E04               	movlw	4
   806   00094E  6E08               	movwf	??_main^0,c
   807   000950  0EBA               	movlw	186
   808   000952                     u897:
   809   000952  2EE8               	decfsz	wreg,f,c
   810   000954  D7FE               	bra	u897
   811   000956  2E08               	decfsz	??_main^0,f,c
   812   000958  D7FC               	bra	u897
   813   00095A  2E09               	decfsz	(??_main+1)^0,f,c
   814   00095C  D7FA               	bra	u897
   815   00095E  D000               	nop2	
   816   000960                     l1433:
   817                           
   818                           ;mainLCDtecl2.c: 124: };mainLCDtecl2.c: 125: if (tecla == 'x')
   819   000960  0E78               	movlw	120
   820   000962  180A               	xorwf	_tecla^0,w,c
   821   000964  A4D8               	btfss	status,2,c
   822   000966  EFB7  F004         	goto	u701
   823   00096A  EFB9  F004         	goto	u700
   824   00096E                     u701:
   825   00096E  EFCC  F004         	goto	l1439
   826   000972                     u700:
   827   000972                     
   828                           ;mainLCDtecl2.c: 126: {;mainLCDtecl2.c: 127: Lcd_Out(2, 0, "x");
   829   000972  0E00               	movlw	0
   830   000974  6E04               	movwf	Lcd_Out@x^0,c
   831   000976  0E53               	movlw	low STR_14
   832   000978  6E05               	movwf	Lcd_Out@buffer^0,c
   833   00097A  0E02               	movlw	2
   834   00097C  ECCF  F008         	call	_Lcd_Out
   835   000980                     
   836                           ;mainLCDtecl2.c: 128: _delay((unsigned long)((100)*(8000000/4000.0)));
   837   000980  0E02               	movlw	2
   838   000982  6E09               	movwf	(??_main+1)^0,c
   839   000984  0E04               	movlw	4
   840   000986  6E08               	movwf	??_main^0,c
   841   000988  0EBA               	movlw	186
   842   00098A                     u907:
   843   00098A  2EE8               	decfsz	wreg,f,c
   844   00098C  D7FE               	bra	u907
   845   00098E  2E08               	decfsz	??_main^0,f,c
   846   000990  D7FC               	bra	u907
   847   000992  2E09               	decfsz	(??_main+1)^0,f,c
   848   000994  D7FA               	bra	u907
   849   000996  D000               	nop2	
   850   000998                     l1439:
   851                           
   852                           ;mainLCDtecl2.c: 129: };mainLCDtecl2.c: 130: if (tecla == '-')
   853   000998  0E2D               	movlw	45
   854   00099A  180A               	xorwf	_tecla^0,w,c
   855   00099C  A4D8               	btfss	status,2,c
   856   00099E  EFD3  F004         	goto	u711
   857   0009A2  EFD5  F004         	goto	u710
   858   0009A6                     u711:
   859   0009A6  EFE8  F004         	goto	l1445
   860   0009AA                     u710:
   861   0009AA                     
   862                           ;mainLCDtecl2.c: 131: {;mainLCDtecl2.c: 132: Lcd_Out(2, 0, "-");
   863   0009AA  0E00               	movlw	0
   864   0009AC  6E04               	movwf	Lcd_Out@x^0,c
   865   0009AE  0E33               	movlw	low STR_15
   866   0009B0  6E05               	movwf	Lcd_Out@buffer^0,c
   867   0009B2  0E02               	movlw	2
   868   0009B4  ECCF  F008         	call	_Lcd_Out
   869   0009B8                     
   870                           ;mainLCDtecl2.c: 133: _delay((unsigned long)((100)*(8000000/4000.0)));
   871   0009B8  0E02               	movlw	2
   872   0009BA  6E09               	movwf	(??_main+1)^0,c
   873   0009BC  0E04               	movlw	4
   874   0009BE  6E08               	movwf	??_main^0,c
   875   0009C0  0EBA               	movlw	186
   876   0009C2                     u917:
   877   0009C2  2EE8               	decfsz	wreg,f,c
   878   0009C4  D7FE               	bra	u917
   879   0009C6  2E08               	decfsz	??_main^0,f,c
   880   0009C8  D7FC               	bra	u917
   881   0009CA  2E09               	decfsz	(??_main+1)^0,f,c
   882   0009CC  D7FA               	bra	u917
   883   0009CE  D000               	nop2	
   884   0009D0                     l1445:
   885                           
   886                           ;mainLCDtecl2.c: 134: };mainLCDtecl2.c: 135: if (tecla == 'A')
   887   0009D0  0E41               	movlw	65
   888   0009D2  180A               	xorwf	_tecla^0,w,c
   889   0009D4  A4D8               	btfss	status,2,c
   890   0009D6  EFEF  F004         	goto	u721
   891   0009DA  EFF1  F004         	goto	u720
   892   0009DE                     u721:
   893   0009DE  EF04  F005         	goto	l1451
   894   0009E2                     u720:
   895   0009E2                     
   896                           ;mainLCDtecl2.c: 136: {;mainLCDtecl2.c: 137: Lcd_Out(2, 0, "A");
   897   0009E2  0E00               	movlw	0
   898   0009E4  6E04               	movwf	Lcd_Out@x^0,c
   899   0009E6  0E49               	movlw	low STR_16
   900   0009E8  6E05               	movwf	Lcd_Out@buffer^0,c
   901   0009EA  0E02               	movlw	2
   902   0009EC  ECCF  F008         	call	_Lcd_Out
   903   0009F0                     
   904                           ;mainLCDtecl2.c: 138: _delay((unsigned long)((100)*(8000000/4000.0)));
   905   0009F0  0E02               	movlw	2
   906   0009F2  6E09               	movwf	(??_main+1)^0,c
   907   0009F4  0E04               	movlw	4
   908   0009F6  6E08               	movwf	??_main^0,c
   909   0009F8  0EBA               	movlw	186
   910   0009FA                     u927:
   911   0009FA  2EE8               	decfsz	wreg,f,c
   912   0009FC  D7FE               	bra	u927
   913   0009FE  2E08               	decfsz	??_main^0,f,c
   914   000A00  D7FC               	bra	u927
   915   000A02  2E09               	decfsz	(??_main+1)^0,f,c
   916   000A04  D7FA               	bra	u927
   917   000A06  D000               	nop2	
   918   000A08                     l1451:
   919                           
   920                           ;mainLCDtecl2.c: 139: };mainLCDtecl2.c: 140: if (tecla == 'B')
   921   000A08  0E42               	movlw	66
   922   000A0A  180A               	xorwf	_tecla^0,w,c
   923   000A0C  A4D8               	btfss	status,2,c
   924   000A0E  EF0B  F005         	goto	u731
   925   000A12  EF0D  F005         	goto	u730
   926   000A16                     u731:
   927   000A16  EF20  F005         	goto	l1457
   928   000A1A                     u730:
   929   000A1A                     
   930                           ;mainLCDtecl2.c: 141: {;mainLCDtecl2.c: 142: Lcd_Out(2, 0, "B");
   931   000A1A  0E00               	movlw	0
   932   000A1C  6E04               	movwf	Lcd_Out@x^0,c
   933   000A1E  0E4B               	movlw	low STR_17
   934   000A20  6E05               	movwf	Lcd_Out@buffer^0,c
   935   000A22  0E02               	movlw	2
   936   000A24  ECCF  F008         	call	_Lcd_Out
   937   000A28                     
   938                           ;mainLCDtecl2.c: 143: _delay((unsigned long)((100)*(8000000/4000.0)));
   939   000A28  0E02               	movlw	2
   940   000A2A  6E09               	movwf	(??_main+1)^0,c
   941   000A2C  0E04               	movlw	4
   942   000A2E  6E08               	movwf	??_main^0,c
   943   000A30  0EBA               	movlw	186
   944   000A32                     u937:
   945   000A32  2EE8               	decfsz	wreg,f,c
   946   000A34  D7FE               	bra	u937
   947   000A36  2E08               	decfsz	??_main^0,f,c
   948   000A38  D7FC               	bra	u937
   949   000A3A  2E09               	decfsz	(??_main+1)^0,f,c
   950   000A3C  D7FA               	bra	u937
   951   000A3E  D000               	nop2	
   952   000A40                     l1457:
   953                           
   954                           ;mainLCDtecl2.c: 144: };mainLCDtecl2.c: 145: if (tecla == 'C')
   955   000A40  0E43               	movlw	67
   956   000A42  180A               	xorwf	_tecla^0,w,c
   957   000A44  A4D8               	btfss	status,2,c
   958   000A46  EF27  F005         	goto	u741
   959   000A4A  EF29  F005         	goto	u740
   960   000A4E                     u741:
   961   000A4E  EF3C  F005         	goto	l1463
   962   000A52                     u740:
   963   000A52                     
   964                           ;mainLCDtecl2.c: 146: {;mainLCDtecl2.c: 147: Lcd_Out(2, 0, "C");
   965   000A52  0E00               	movlw	0
   966   000A54  6E04               	movwf	Lcd_Out@x^0,c
   967   000A56  0E4D               	movlw	low STR_18
   968   000A58  6E05               	movwf	Lcd_Out@buffer^0,c
   969   000A5A  0E02               	movlw	2
   970   000A5C  ECCF  F008         	call	_Lcd_Out
   971   000A60                     
   972                           ;mainLCDtecl2.c: 148: _delay((unsigned long)((100)*(8000000/4000.0)));
   973   000A60  0E02               	movlw	2
   974   000A62  6E09               	movwf	(??_main+1)^0,c
   975   000A64  0E04               	movlw	4
   976   000A66  6E08               	movwf	??_main^0,c
   977   000A68  0EBA               	movlw	186
   978   000A6A                     u947:
   979   000A6A  2EE8               	decfsz	wreg,f,c
   980   000A6C  D7FE               	bra	u947
   981   000A6E  2E08               	decfsz	??_main^0,f,c
   982   000A70  D7FC               	bra	u947
   983   000A72  2E09               	decfsz	(??_main+1)^0,f,c
   984   000A74  D7FA               	bra	u947
   985   000A76  D000               	nop2	
   986   000A78                     l1463:
   987                           
   988                           ;mainLCDtecl2.c: 149: };mainLCDtecl2.c: 150: if (tecla == 'D')
   989   000A78  0E44               	movlw	68
   990   000A7A  180A               	xorwf	_tecla^0,w,c
   991   000A7C  A4D8               	btfss	status,2,c
   992   000A7E  EF43  F005         	goto	u751
   993   000A82  EF45  F005         	goto	u750
   994   000A86                     u751:
   995   000A86  EF58  F005         	goto	l1469
   996   000A8A                     u750:
   997   000A8A                     
   998                           ;mainLCDtecl2.c: 151: {;mainLCDtecl2.c: 152: Lcd_Out(2, 0, "D");
   999   000A8A  0E00               	movlw	0
  1000   000A8C  6E04               	movwf	Lcd_Out@x^0,c
  1001   000A8E  0E4F               	movlw	low STR_19
  1002   000A90  6E05               	movwf	Lcd_Out@buffer^0,c
  1003   000A92  0E02               	movlw	2
  1004   000A94  ECCF  F008         	call	_Lcd_Out
  1005   000A98                     
  1006                           ;mainLCDtecl2.c: 153: _delay((unsigned long)((100)*(8000000/4000.0)));
  1007   000A98  0E02               	movlw	2
  1008   000A9A  6E09               	movwf	(??_main+1)^0,c
  1009   000A9C  0E04               	movlw	4
  1010   000A9E  6E08               	movwf	??_main^0,c
  1011   000AA0  0EBA               	movlw	186
  1012   000AA2                     u957:
  1013   000AA2  2EE8               	decfsz	wreg,f,c
  1014   000AA4  D7FE               	bra	u957
  1015   000AA6  2E08               	decfsz	??_main^0,f,c
  1016   000AA8  D7FC               	bra	u957
  1017   000AAA  2E09               	decfsz	(??_main+1)^0,f,c
  1018   000AAC  D7FA               	bra	u957
  1019   000AAE  D000               	nop2	
  1020   000AB0                     l1469:
  1021                           
  1022                           ;mainLCDtecl2.c: 154: };mainLCDtecl2.c: 155: if (tecla == 'F')
  1023   000AB0  0E46               	movlw	70
  1024   000AB2  180A               	xorwf	_tecla^0,w,c
  1025   000AB4  A4D8               	btfss	status,2,c
  1026   000AB6  EF5F  F005         	goto	u761
  1027   000ABA  EF61  F005         	goto	u760
  1028   000ABE                     u761:
  1029   000ABE  EF94  F003         	goto	l112
  1030   000AC2                     u760:
  1031   000AC2                     
  1032                           ;mainLCDtecl2.c: 156: {;mainLCDtecl2.c: 157: Lcd_Out(2, 0, "F");
  1033   000AC2  0E00               	movlw	0
  1034   000AC4  6E04               	movwf	Lcd_Out@x^0,c
  1035   000AC6  0E51               	movlw	low STR_20
  1036   000AC8  6E05               	movwf	Lcd_Out@buffer^0,c
  1037   000ACA  0E02               	movlw	2
  1038   000ACC  ECCF  F008         	call	_Lcd_Out
  1039   000AD0                     
  1040                           ;mainLCDtecl2.c: 158: _delay((unsigned long)((100)*(8000000/4000.0)));
  1041   000AD0  0E02               	movlw	2
  1042   000AD2  6E09               	movwf	(??_main+1)^0,c
  1043   000AD4  0E04               	movlw	4
  1044   000AD6  6E08               	movwf	??_main^0,c
  1045   000AD8  0EBA               	movlw	186
  1046   000ADA                     u967:
  1047   000ADA  2EE8               	decfsz	wreg,f,c
  1048   000ADC  D7FE               	bra	u967
  1049   000ADE  2E08               	decfsz	??_main^0,f,c
  1050   000AE0  D7FC               	bra	u967
  1051   000AE2  2E09               	decfsz	(??_main+1)^0,f,c
  1052   000AE4  D7FA               	bra	u967
  1053   000AE6  D000               	nop2	
  1054   000AE8  EF94  F003         	goto	l112
  1055   000AEC  EF00  F000         	goto	start
  1056   000AF0                     __end_of_main:
  1057                           	callstack 0
  1058                           
  1059 ;; *************** function _tc_tecla *****************
  1060 ;; Defined at:
  1061 ;;		line 45 in file "teclado.c"
  1062 ;; Parameters:    Size  Location     Type
  1063 ;;		None
  1064 ;; Auto vars:     Size  Location     Type
  1065 ;;  key             1    1[COMRAM] unsigned char 
  1066 ;; Return value:  Size  Location     Type
  1067 ;;                  1    wreg      unsigned char 
  1068 ;; Registers used:
  1069 ;;		wreg, status,2
  1070 ;; Tracked objects:
  1071 ;;		On entry : 0/0
  1072 ;;		On exit  : 0/0
  1073 ;;		Unchanged: 0/0
  1074 ;; Data sizes:     COMRAM   BANK0   BANK1   BANK2   BANK3   BANK4   BANK5
  1075 ;;      Params:         0       0       0       0       0       0       0
  1076 ;;      Locals:         1       0       0       0       0       0       0
  1077 ;;      Temps:          1       0       0       0       0       0       0
  1078 ;;      Totals:         2       0       0       0       0       0       0
  1079 ;;Total ram usage:        2 bytes
  1080 ;; Hardware stack levels used: 1
  1081 ;; This function calls:
  1082 ;;		Nothing
  1083 ;; This function is called by:
  1084 ;;		_main
  1085 ;; This function uses a non-reentrant model
  1086 ;;
  1087                           
  1088                           	psect	text1
  1089   000AF0                     __ptext1:
  1090                           	callstack 0
  1091   000AF0                     _tc_tecla:
  1092                           	callstack 30
  1093   000AF0                     
  1094                           ;teclado.c: 48: unsigned char key;;teclado.c: 50: LATBbits.LB4 = 1; LATBbits.LB5 = 1; LA
      +                          TBbits.LB6 = 1; LATBbits.LB7 = 1;
  1095   000AF0  888A               	bsf	138,4,c	;volatile
  1096   000AF2  8A8A               	bsf	138,5,c	;volatile
  1097   000AF4  8C8A               	bsf	138,6,c	;volatile
  1098   000AF6  8E8A               	bsf	138,7,c	;volatile
  1099                           
  1100                           ;teclado.c: 51: LATBbits.LB4 = 0;
  1101   000AF8  988A               	bcf	138,4,c	;volatile
  1102                           
  1103                           ;teclado.c: 52: if(!PORTBbits.RB3) {_delay((unsigned long)((5)*(8000000/4000.0))); if (!
      +                          PORTBbits.RB3){key = '1'; }}
  1104   000AFA  B681               	btfsc	129,3,c	;volatile
  1105   000AFC  EF82  F005         	goto	u71
  1106   000B00  EF84  F005         	goto	u70
  1107   000B04                     u71:
  1108   000B04  EF96  F005         	goto	l9
  1109   000B08                     u70:
  1110   000B08  0E0D               	movlw	13
  1111   000B0A  6E01               	movwf	??_tc_tecla^0,c
  1112   000B0C  0EFC               	movlw	252
  1113   000B0E                     u977:
  1114   000B0E  2EE8               	decfsz	wreg,f,c
  1115   000B10  D7FE               	bra	u977
  1116   000B12  2E01               	decfsz	??_tc_tecla^0,f,c
  1117   000B14  D7FC               	bra	u977
  1118   000B16  B681               	btfsc	129,3,c	;volatile
  1119   000B18  EF90  F005         	goto	u81
  1120   000B1C  EF92  F005         	goto	u80
  1121   000B20                     u81:
  1122   000B20  EFDF  F005         	goto	l1003
  1123   000B24                     u80:
  1124   000B24  0E31               	movlw	49
  1125   000B26  6E02               	movwf	tc_tecla@key^0,c
  1126   000B28  EFDF  F005         	goto	l1003
  1127   000B2C                     l9:
  1128                           
  1129                           ;teclado.c: 53: else if(!PORTBbits.RB2) {_delay((unsigned long)((5)*(8000000/4000.0))); 
      +                          if (!PORTBbits.RB2){key = '2'; }}
  1130   000B2C  B481               	btfsc	129,2,c	;volatile
  1131   000B2E  EF9B  F005         	goto	u91
  1132   000B32  EF9D  F005         	goto	u90
  1133   000B36                     u91:
  1134   000B36  EFAF  F005         	goto	l12
  1135   000B3A                     u90:
  1136   000B3A  0E0D               	movlw	13
  1137   000B3C  6E01               	movwf	??_tc_tecla^0,c
  1138   000B3E  0EFC               	movlw	252
  1139   000B40                     u987:
  1140   000B40  2EE8               	decfsz	wreg,f,c
  1141   000B42  D7FE               	bra	u987
  1142   000B44  2E01               	decfsz	??_tc_tecla^0,f,c
  1143   000B46  D7FC               	bra	u987
  1144   000B48  B481               	btfsc	129,2,c	;volatile
  1145   000B4A  EFA9  F005         	goto	u101
  1146   000B4E  EFAB  F005         	goto	u100
  1147   000B52                     u101:
  1148   000B52  EFDF  F005         	goto	l1003
  1149   000B56                     u100:
  1150   000B56  0E32               	movlw	50
  1151   000B58  6E02               	movwf	tc_tecla@key^0,c
  1152   000B5A  EFDF  F005         	goto	l1003
  1153   000B5E                     l12:
  1154                           
  1155                           ;teclado.c: 54: else if(!PORTBbits.RB1) {_delay((unsigned long)((5)*(8000000/4000.0))); 
      +                          if (!PORTBbits.RB1){key = '3'; }}
  1156   000B5E  B281               	btfsc	129,1,c	;volatile
  1157   000B60  EFB4  F005         	goto	u111
  1158   000B64  EFB6  F005         	goto	u110
  1159   000B68                     u111:
  1160   000B68  EFC8  F005         	goto	l15
  1161   000B6C                     u110:
  1162   000B6C  0E0D               	movlw	13
  1163   000B6E  6E01               	movwf	??_tc_tecla^0,c
  1164   000B70  0EFC               	movlw	252
  1165   000B72                     u997:
  1166   000B72  2EE8               	decfsz	wreg,f,c
  1167   000B74  D7FE               	bra	u997
  1168   000B76  2E01               	decfsz	??_tc_tecla^0,f,c
  1169   000B78  D7FC               	bra	u997
  1170   000B7A  B281               	btfsc	129,1,c	;volatile
  1171   000B7C  EFC2  F005         	goto	u121
  1172   000B80  EFC4  F005         	goto	u120
  1173   000B84                     u121:
  1174   000B84  EFDF  F005         	goto	l1003
  1175   000B88                     u120:
  1176   000B88  0E33               	movlw	51
  1177   000B8A  6E02               	movwf	tc_tecla@key^0,c
  1178   000B8C  EFDF  F005         	goto	l1003
  1179   000B90                     l15:
  1180                           
  1181                           ;teclado.c: 55: else if(!PORTBbits.RB0) {_delay((unsigned long)((5)*(8000000/4000.0))); 
      +                          if (!PORTBbits.RB0){key = 'A'; }}
  1182   000B90  B081               	btfsc	129,0,c	;volatile
  1183   000B92  EFCD  F005         	goto	u131
  1184   000B96  EFCF  F005         	goto	u130
  1185   000B9A                     u131:
  1186   000B9A  EFDF  F005         	goto	l1003
  1187   000B9E                     u130:
  1188   000B9E  0E0D               	movlw	13
  1189   000BA0  6E01               	movwf	??_tc_tecla^0,c
  1190   000BA2  0EFC               	movlw	252
  1191   000BA4                     u1007:
  1192   000BA4  2EE8               	decfsz	wreg,f,c
  1193   000BA6  D7FE               	bra	u1007
  1194   000BA8  2E01               	decfsz	??_tc_tecla^0,f,c
  1195   000BAA  D7FC               	bra	u1007
  1196   000BAC  B081               	btfsc	129,0,c	;volatile
  1197   000BAE  EFDB  F005         	goto	u141
  1198   000BB2  EFDD  F005         	goto	u140
  1199   000BB6                     u141:
  1200   000BB6  EFDF  F005         	goto	l1003
  1201   000BBA                     u140:
  1202   000BBA  0E41               	movlw	65
  1203   000BBC  6E02               	movwf	tc_tecla@key^0,c
  1204   000BBE                     l1003:
  1205                           
  1206                           ;teclado.c: 57: LATBbits.LB4 = 1;
  1207   000BBE  888A               	bsf	138,4,c	;volatile
  1208   000BC0                     
  1209                           ;teclado.c: 58: LATBbits.LB5 = 0;
  1210   000BC0  9A8A               	bcf	138,5,c	;volatile
  1211   000BC2                     
  1212                           ;teclado.c: 60: if(!PORTBbits.RB3) {_delay((unsigned long)((5)*(8000000/4000.0))); if (!
      +                          PORTBbits.RB3){key = '4'; }}
  1213   000BC2  B681               	btfsc	129,3,c	;volatile
  1214   000BC4  EFE6  F005         	goto	u151
  1215   000BC8  EFE8  F005         	goto	u150
  1216   000BCC                     u151:
  1217   000BCC  EFFA  F005         	goto	l20
  1218   000BD0                     u150:
  1219   000BD0  0E0D               	movlw	13
  1220   000BD2  6E01               	movwf	??_tc_tecla^0,c
  1221   000BD4  0EFC               	movlw	252
  1222   000BD6                     u1017:
  1223   000BD6  2EE8               	decfsz	wreg,f,c
  1224   000BD8  D7FE               	bra	u1017
  1225   000BDA  2E01               	decfsz	??_tc_tecla^0,f,c
  1226   000BDC  D7FC               	bra	u1017
  1227   000BDE  B681               	btfsc	129,3,c	;volatile
  1228   000BE0  EFF4  F005         	goto	u161
  1229   000BE4  EFF6  F005         	goto	u160
  1230   000BE8                     u161:
  1231   000BE8  EF43  F006         	goto	l1033
  1232   000BEC                     u160:
  1233   000BEC  0E34               	movlw	52
  1234   000BEE  6E02               	movwf	tc_tecla@key^0,c
  1235   000BF0  EF43  F006         	goto	l1033
  1236   000BF4                     l20:
  1237                           
  1238                           ;teclado.c: 61: else if(!PORTBbits.RB2) {_delay((unsigned long)((5)*(8000000/4000.0))); 
      +                          if (!PORTBbits.RB2){key = '5'; }}
  1239   000BF4  B481               	btfsc	129,2,c	;volatile
  1240   000BF6  EFFF  F005         	goto	u171
  1241   000BFA  EF01  F006         	goto	u170
  1242   000BFE                     u171:
  1243   000BFE  EF13  F006         	goto	l23
  1244   000C02                     u170:
  1245   000C02  0E0D               	movlw	13
  1246   000C04  6E01               	movwf	??_tc_tecla^0,c
  1247   000C06  0EFC               	movlw	252
  1248   000C08                     u1027:
  1249   000C08  2EE8               	decfsz	wreg,f,c
  1250   000C0A  D7FE               	bra	u1027
  1251   000C0C  2E01               	decfsz	??_tc_tecla^0,f,c
  1252   000C0E  D7FC               	bra	u1027
  1253   000C10  B481               	btfsc	129,2,c	;volatile
  1254   000C12  EF0D  F006         	goto	u181
  1255   000C16  EF0F  F006         	goto	u180
  1256   000C1A                     u181:
  1257   000C1A  EF43  F006         	goto	l1033
  1258   000C1E                     u180:
  1259   000C1E  0E35               	movlw	53
  1260   000C20  6E02               	movwf	tc_tecla@key^0,c
  1261   000C22  EF43  F006         	goto	l1033
  1262   000C26                     l23:
  1263                           
  1264                           ;teclado.c: 62: else if(!PORTBbits.RB1) {_delay((unsigned long)((5)*(8000000/4000.0))); 
      +                          if (!PORTBbits.RB1){key = '6'; }}
  1265   000C26  B281               	btfsc	129,1,c	;volatile
  1266   000C28  EF18  F006         	goto	u191
  1267   000C2C  EF1A  F006         	goto	u190
  1268   000C30                     u191:
  1269   000C30  EF2C  F006         	goto	l26
  1270   000C34                     u190:
  1271   000C34  0E0D               	movlw	13
  1272   000C36  6E01               	movwf	??_tc_tecla^0,c
  1273   000C38  0EFC               	movlw	252
  1274   000C3A                     u1037:
  1275   000C3A  2EE8               	decfsz	wreg,f,c
  1276   000C3C  D7FE               	bra	u1037
  1277   000C3E  2E01               	decfsz	??_tc_tecla^0,f,c
  1278   000C40  D7FC               	bra	u1037
  1279   000C42  B281               	btfsc	129,1,c	;volatile
  1280   000C44  EF26  F006         	goto	u201
  1281   000C48  EF28  F006         	goto	u200
  1282   000C4C                     u201:
  1283   000C4C  EF43  F006         	goto	l1033
  1284   000C50                     u200:
  1285   000C50  0E36               	movlw	54
  1286   000C52  6E02               	movwf	tc_tecla@key^0,c
  1287   000C54  EF43  F006         	goto	l1033
  1288   000C58                     l26:
  1289                           
  1290                           ;teclado.c: 63: else if(!PORTBbits.RB0) {_delay((unsigned long)((5)*(8000000/4000.0))); 
      +                          if (!PORTBbits.RB0){key = 'B'; }}
  1291   000C58  B081               	btfsc	129,0,c	;volatile
  1292   000C5A  EF31  F006         	goto	u211
  1293   000C5E  EF33  F006         	goto	u210
  1294   000C62                     u211:
  1295   000C62  EF43  F006         	goto	l1033
  1296   000C66                     u210:
  1297   000C66  0E0D               	movlw	13
  1298   000C68  6E01               	movwf	??_tc_tecla^0,c
  1299   000C6A  0EFC               	movlw	252
  1300   000C6C                     u1047:
  1301   000C6C  2EE8               	decfsz	wreg,f,c
  1302   000C6E  D7FE               	bra	u1047
  1303   000C70  2E01               	decfsz	??_tc_tecla^0,f,c
  1304   000C72  D7FC               	bra	u1047
  1305   000C74  B081               	btfsc	129,0,c	;volatile
  1306   000C76  EF3F  F006         	goto	u221
  1307   000C7A  EF41  F006         	goto	u220
  1308   000C7E                     u221:
  1309   000C7E  EF43  F006         	goto	l1033
  1310   000C82                     u220:
  1311   000C82  0E42               	movlw	66
  1312   000C84  6E02               	movwf	tc_tecla@key^0,c
  1313   000C86                     l1033:
  1314                           
  1315                           ;teclado.c: 65: LATBbits.LB5 = 1;
  1316   000C86  8A8A               	bsf	138,5,c	;volatile
  1317   000C88                     
  1318                           ;teclado.c: 66: LATBbits.LB6 = 0;
  1319   000C88  9C8A               	bcf	138,6,c	;volatile
  1320   000C8A                     
  1321                           ;teclado.c: 68: if(!PORTBbits.RB3) {_delay((unsigned long)((5)*(8000000/4000.0))); if (!
      +                          PORTBbits.RB3){key = '7'; }}
  1322   000C8A  B681               	btfsc	129,3,c	;volatile
  1323   000C8C  EF4A  F006         	goto	u231
  1324   000C90  EF4C  F006         	goto	u230
  1325   000C94                     u231:
  1326   000C94  EF5E  F006         	goto	l31
  1327   000C98                     u230:
  1328   000C98  0E0D               	movlw	13
  1329   000C9A  6E01               	movwf	??_tc_tecla^0,c
  1330   000C9C  0EFC               	movlw	252
  1331   000C9E                     u1057:
  1332   000C9E  2EE8               	decfsz	wreg,f,c
  1333   000CA0  D7FE               	bra	u1057
  1334   000CA2  2E01               	decfsz	??_tc_tecla^0,f,c
  1335   000CA4  D7FC               	bra	u1057
  1336   000CA6  B681               	btfsc	129,3,c	;volatile
  1337   000CA8  EF58  F006         	goto	u241
  1338   000CAC  EF5A  F006         	goto	u240
  1339   000CB0                     u241:
  1340   000CB0  EFA7  F006         	goto	l1063
  1341   000CB4                     u240:
  1342   000CB4  0E37               	movlw	55
  1343   000CB6  6E02               	movwf	tc_tecla@key^0,c
  1344   000CB8  EFA7  F006         	goto	l1063
  1345   000CBC                     l31:
  1346                           
  1347                           ;teclado.c: 69: else if(!PORTBbits.RB2) {_delay((unsigned long)((5)*(8000000/4000.0))); 
      +                          if (!PORTBbits.RB2){key = '8'; }}
  1348   000CBC  B481               	btfsc	129,2,c	;volatile
  1349   000CBE  EF63  F006         	goto	u251
  1350   000CC2  EF65  F006         	goto	u250
  1351   000CC6                     u251:
  1352   000CC6  EF77  F006         	goto	l34
  1353   000CCA                     u250:
  1354   000CCA  0E0D               	movlw	13
  1355   000CCC  6E01               	movwf	??_tc_tecla^0,c
  1356   000CCE  0EFC               	movlw	252
  1357   000CD0                     u1067:
  1358   000CD0  2EE8               	decfsz	wreg,f,c
  1359   000CD2  D7FE               	bra	u1067
  1360   000CD4  2E01               	decfsz	??_tc_tecla^0,f,c
  1361   000CD6  D7FC               	bra	u1067
  1362   000CD8  B481               	btfsc	129,2,c	;volatile
  1363   000CDA  EF71  F006         	goto	u261
  1364   000CDE  EF73  F006         	goto	u260
  1365   000CE2                     u261:
  1366   000CE2  EFA7  F006         	goto	l1063
  1367   000CE6                     u260:
  1368   000CE6  0E38               	movlw	56
  1369   000CE8  6E02               	movwf	tc_tecla@key^0,c
  1370   000CEA  EFA7  F006         	goto	l1063
  1371   000CEE                     l34:
  1372                           
  1373                           ;teclado.c: 70: else if(!PORTBbits.RB1) {_delay((unsigned long)((5)*(8000000/4000.0))); 
      +                          if (!PORTBbits.RB1){key = '9'; }}
  1374   000CEE  B281               	btfsc	129,1,c	;volatile
  1375   000CF0  EF7C  F006         	goto	u271
  1376   000CF4  EF7E  F006         	goto	u270
  1377   000CF8                     u271:
  1378   000CF8  EF90  F006         	goto	l37
  1379   000CFC                     u270:
  1380   000CFC  0E0D               	movlw	13
  1381   000CFE  6E01               	movwf	??_tc_tecla^0,c
  1382   000D00  0EFC               	movlw	252
  1383   000D02                     u1077:
  1384   000D02  2EE8               	decfsz	wreg,f,c
  1385   000D04  D7FE               	bra	u1077
  1386   000D06  2E01               	decfsz	??_tc_tecla^0,f,c
  1387   000D08  D7FC               	bra	u1077
  1388   000D0A  B281               	btfsc	129,1,c	;volatile
  1389   000D0C  EF8A  F006         	goto	u281
  1390   000D10  EF8C  F006         	goto	u280
  1391   000D14                     u281:
  1392   000D14  EFA7  F006         	goto	l1063
  1393   000D18                     u280:
  1394   000D18  0E39               	movlw	57
  1395   000D1A  6E02               	movwf	tc_tecla@key^0,c
  1396   000D1C  EFA7  F006         	goto	l1063
  1397   000D20                     l37:
  1398                           
  1399                           ;teclado.c: 71: else if(!PORTBbits.RB0) {_delay((unsigned long)((5)*(8000000/4000.0))); 
      +                          if (!PORTBbits.RB0){key = 'C'; }}
  1400   000D20  B081               	btfsc	129,0,c	;volatile
  1401   000D22  EF95  F006         	goto	u291
  1402   000D26  EF97  F006         	goto	u290
  1403   000D2A                     u291:
  1404   000D2A  EFA7  F006         	goto	l1063
  1405   000D2E                     u290:
  1406   000D2E  0E0D               	movlw	13
  1407   000D30  6E01               	movwf	??_tc_tecla^0,c
  1408   000D32  0EFC               	movlw	252
  1409   000D34                     u1087:
  1410   000D34  2EE8               	decfsz	wreg,f,c
  1411   000D36  D7FE               	bra	u1087
  1412   000D38  2E01               	decfsz	??_tc_tecla^0,f,c
  1413   000D3A  D7FC               	bra	u1087
  1414   000D3C  B081               	btfsc	129,0,c	;volatile
  1415   000D3E  EFA3  F006         	goto	u301
  1416   000D42  EFA5  F006         	goto	u300
  1417   000D46                     u301:
  1418   000D46  EFA7  F006         	goto	l1063
  1419   000D4A                     u300:
  1420   000D4A  0E43               	movlw	67
  1421   000D4C  6E02               	movwf	tc_tecla@key^0,c
  1422   000D4E                     l1063:
  1423                           
  1424                           ;teclado.c: 73: LATBbits.LB6 = 1;
  1425   000D4E  8C8A               	bsf	138,6,c	;volatile
  1426   000D50                     
  1427                           ;teclado.c: 74: LATBbits.LB7 = 0;
  1428   000D50  9E8A               	bcf	138,7,c	;volatile
  1429   000D52                     
  1430                           ;teclado.c: 76: if(!PORTBbits.RB3) {_delay((unsigned long)((5)*(8000000/4000.0))); if (!
      +                          PORTBbits.RB3){key = 'x'; }}
  1431   000D52  B681               	btfsc	129,3,c	;volatile
  1432   000D54  EFAE  F006         	goto	u311
  1433   000D58  EFB0  F006         	goto	u310
  1434   000D5C                     u311:
  1435   000D5C  EFC2  F006         	goto	l42
  1436   000D60                     u310:
  1437   000D60  0E0D               	movlw	13
  1438   000D62  6E01               	movwf	??_tc_tecla^0,c
  1439   000D64  0EFC               	movlw	252
  1440   000D66                     u1097:
  1441   000D66  2EE8               	decfsz	wreg,f,c
  1442   000D68  D7FE               	bra	u1097
  1443   000D6A  2E01               	decfsz	??_tc_tecla^0,f,c
  1444   000D6C  D7FC               	bra	u1097
  1445   000D6E  B681               	btfsc	129,3,c	;volatile
  1446   000D70  EFBC  F006         	goto	u321
  1447   000D74  EFBE  F006         	goto	u320
  1448   000D78                     u321:
  1449   000D78  EF0B  F007         	goto	l1093
  1450   000D7C                     u320:
  1451   000D7C  0E78               	movlw	120
  1452   000D7E  6E02               	movwf	tc_tecla@key^0,c
  1453   000D80  EF0B  F007         	goto	l1093
  1454   000D84                     l42:
  1455                           
  1456                           ;teclado.c: 77: else if(!PORTBbits.RB2) {_delay((unsigned long)((5)*(8000000/4000.0))); 
      +                          if (!PORTBbits.RB2){key = '0'; }}
  1457   000D84  B481               	btfsc	129,2,c	;volatile
  1458   000D86  EFC7  F006         	goto	u331
  1459   000D8A  EFC9  F006         	goto	u330
  1460   000D8E                     u331:
  1461   000D8E  EFDB  F006         	goto	l45
  1462   000D92                     u330:
  1463   000D92  0E0D               	movlw	13
  1464   000D94  6E01               	movwf	??_tc_tecla^0,c
  1465   000D96  0EFC               	movlw	252
  1466   000D98                     u1107:
  1467   000D98  2EE8               	decfsz	wreg,f,c
  1468   000D9A  D7FE               	bra	u1107
  1469   000D9C  2E01               	decfsz	??_tc_tecla^0,f,c
  1470   000D9E  D7FC               	bra	u1107
  1471   000DA0  B481               	btfsc	129,2,c	;volatile
  1472   000DA2  EFD5  F006         	goto	u341
  1473   000DA6  EFD7  F006         	goto	u340
  1474   000DAA                     u341:
  1475   000DAA  EF0B  F007         	goto	l1093
  1476   000DAE                     u340:
  1477   000DAE  0E30               	movlw	48
  1478   000DB0  6E02               	movwf	tc_tecla@key^0,c
  1479   000DB2  EF0B  F007         	goto	l1093
  1480   000DB6                     l45:
  1481                           
  1482                           ;teclado.c: 78: else if(!PORTBbits.RB1) {_delay((unsigned long)((5)*(8000000/4000.0))); 
      +                          if (!PORTBbits.RB1){key = 'F'; }}
  1483   000DB6  B281               	btfsc	129,1,c	;volatile
  1484   000DB8  EFE0  F006         	goto	u351
  1485   000DBC  EFE2  F006         	goto	u350
  1486   000DC0                     u351:
  1487   000DC0  EFF4  F006         	goto	l48
  1488   000DC4                     u350:
  1489   000DC4  0E0D               	movlw	13
  1490   000DC6  6E01               	movwf	??_tc_tecla^0,c
  1491   000DC8  0EFC               	movlw	252
  1492   000DCA                     u1117:
  1493   000DCA  2EE8               	decfsz	wreg,f,c
  1494   000DCC  D7FE               	bra	u1117
  1495   000DCE  2E01               	decfsz	??_tc_tecla^0,f,c
  1496   000DD0  D7FC               	bra	u1117
  1497   000DD2  B281               	btfsc	129,1,c	;volatile
  1498   000DD4  EFEE  F006         	goto	u361
  1499   000DD8  EFF0  F006         	goto	u360
  1500   000DDC                     u361:
  1501   000DDC  EF0B  F007         	goto	l1093
  1502   000DE0                     u360:
  1503   000DE0  0E46               	movlw	70
  1504   000DE2  6E02               	movwf	tc_tecla@key^0,c
  1505   000DE4  EF0B  F007         	goto	l1093
  1506   000DE8                     l48:
  1507                           
  1508                           ;teclado.c: 79: else if(!PORTBbits.RB0) {_delay((unsigned long)((5)*(8000000/4000.0))); 
      +                          if (!PORTBbits.RB0){key = 'D'; }}
  1509   000DE8  B081               	btfsc	129,0,c	;volatile
  1510   000DEA  EFF9  F006         	goto	u371
  1511   000DEE  EFFB  F006         	goto	u370
  1512   000DF2                     u371:
  1513   000DF2  EF0B  F007         	goto	l1093
  1514   000DF6                     u370:
  1515   000DF6  0E0D               	movlw	13
  1516   000DF8  6E01               	movwf	??_tc_tecla^0,c
  1517   000DFA  0EFC               	movlw	252
  1518   000DFC                     u1127:
  1519   000DFC  2EE8               	decfsz	wreg,f,c
  1520   000DFE  D7FE               	bra	u1127
  1521   000E00  2E01               	decfsz	??_tc_tecla^0,f,c
  1522   000E02  D7FC               	bra	u1127
  1523   000E04  B081               	btfsc	129,0,c	;volatile
  1524   000E06  EF07  F007         	goto	u381
  1525   000E0A  EF09  F007         	goto	u380
  1526   000E0E                     u381:
  1527   000E0E  EF0B  F007         	goto	l1093
  1528   000E12                     u380:
  1529   000E12  0E44               	movlw	68
  1530   000E14  6E02               	movwf	tc_tecla@key^0,c
  1531   000E16                     l1093:
  1532                           
  1533                           ;teclado.c: 81: LATBbits.LB7 = 1;
  1534   000E16  8E8A               	bsf	138,7,c	;volatile
  1535   000E18                     
  1536                           ;teclado.c: 83: _delay((unsigned long)((5)*(8000000/4000.0)));
  1537   000E18  0E0D               	movlw	13
  1538   000E1A  6E01               	movwf	??_tc_tecla^0,c
  1539   000E1C  0EFC               	movlw	252
  1540   000E1E                     u1137:
  1541   000E1E  2EE8               	decfsz	wreg,f,c
  1542   000E20  D7FE               	bra	u1137
  1543   000E22  2E01               	decfsz	??_tc_tecla^0,f,c
  1544   000E24  D7FC               	bra	u1137
  1545   000E26                     
  1546                           ;teclado.c: 87: return key;
  1547   000E26  5002               	movf	tc_tecla@key^0,w,c
  1548   000E28  0012               	return		;funcret
  1549   000E2A                     __end_of_tc_tecla:
  1550                           	callstack 0
  1551                           
  1552 ;; *************** function _Lcd_Out *****************
  1553 ;; Defined at:
  1554 ;;		line 53 in file "flexlcd.c"
  1555 ;; Parameters:    Size  Location     Type
  1556 ;;  y               1    wreg     unsigned char 
  1557 ;;  x               1    3[COMRAM] unsigned char 
  1558 ;;  buffer          1    4[COMRAM] PTR const unsigned char 
  1559 ;;		 -> STR_20(2), STR_19(2), STR_18(2), STR_17(2), 
  1560 ;;		 -> STR_16(2), STR_15(2), STR_14(2), STR_13(2), 
  1561 ;;		 -> STR_12(2), STR_11(2), STR_10(2), STR_9(2), 
  1562 ;;		 -> STR_8(2), STR_7(2), STR_6(2), STR_5(2), 
  1563 ;;		 -> STR_4(2), STR_3(16), STR_2(17), STR_1(17), 
  1564 ;; Auto vars:     Size  Location     Type
  1565 ;;  y               1    5[COMRAM] unsigned char 
  1566 ;;  data            1    6[COMRAM] unsigned char 
  1567 ;; Return value:  Size  Location     Type
  1568 ;;                  1    wreg      void 
  1569 ;; Registers used:
  1570 ;;		wreg, status,2, status,0, tblptrl, tblptrh, tblptru, cstack
  1571 ;; Tracked objects:
  1572 ;;		On entry : 0/0
  1573 ;;		On exit  : 0/0
  1574 ;;		Unchanged: 0/0
  1575 ;; Data sizes:     COMRAM   BANK0   BANK1   BANK2   BANK3   BANK4   BANK5
  1576 ;;      Params:         2       0       0       0       0       0       0
  1577 ;;      Locals:         2       0       0       0       0       0       0
  1578 ;;      Temps:          0       0       0       0       0       0       0
  1579 ;;      Totals:         4       0       0       0       0       0       0
  1580 ;;Total ram usage:        4 bytes
  1581 ;; Hardware stack levels used: 1
  1582 ;; Hardware stack levels required when called: 1
  1583 ;; This function calls:
  1584 ;;		_Lcd_Chr_CP
  1585 ;;		_Lcd_Cmd
  1586 ;; This function is called by:
  1587 ;;		_main
  1588 ;; This function uses a non-reentrant model
  1589 ;;
  1590                           
  1591                           	psect	text2
  1592   00119E                     __ptext2:
  1593                           	callstack 0
  1594   00119E                     _Lcd_Out:
  1595                           	callstack 29
  1596                           
  1597                           ;incstack = 0
  1598                           ;Lcd_Out@y stored from wreg
  1599   00119E  6E06               	movwf	Lcd_Out@y^0,c
  1600   0011A0                     
  1601                           ;flexlcd.c: 56: unsigned char data;;flexlcd.c: 57: switch (y)
  1602   0011A0  EFE6  F008         	goto	l1339
  1603   0011A4                     l1329:
  1604   0011A4  5004               	movf	Lcd_Out@x^0,w,c
  1605   0011A6  0F80               	addlw	128
  1606   0011A8  6E07               	movwf	Lcd_Out@data^0,c
  1607   0011AA  EFF9  F008         	goto	l1341
  1608   0011AE                     l1331:
  1609   0011AE  5004               	movf	Lcd_Out@x^0,w,c
  1610   0011B0  0FC0               	addlw	192
  1611   0011B2  6E07               	movwf	Lcd_Out@data^0,c
  1612   0011B4  EFF9  F008         	goto	l1341
  1613   0011B8                     l1333:
  1614   0011B8  5004               	movf	Lcd_Out@x^0,w,c
  1615   0011BA  0F94               	addlw	148
  1616   0011BC  6E07               	movwf	Lcd_Out@data^0,c
  1617   0011BE  EFF9  F008         	goto	l1341
  1618   0011C2                     l1335:
  1619   0011C2  5004               	movf	Lcd_Out@x^0,w,c
  1620   0011C4  0FD4               	addlw	212
  1621   0011C6  6E07               	movwf	Lcd_Out@data^0,c
  1622   0011C8  EFF9  F008         	goto	l1341
  1623   0011CC                     l1339:
  1624   0011CC  5006               	movf	Lcd_Out@y^0,w,c
  1625                           
  1626                           ; Switch size 1, requested type "simple"
  1627                           ; Number of cases is 4, Range of values is 1 to 4
  1628                           ; switch strategies available:
  1629                           ; Name         Instructions Cycles
  1630                           ; simple_byte           13     7 (average)
  1631                           ;	Chosen strategy is simple_byte
  1632   0011CE  0A01               	xorlw	1	; case 1
  1633   0011D0  B4D8               	btfsc	status,2,c
  1634   0011D2  EFD2  F008         	goto	l1329
  1635   0011D6  0A03               	xorlw	3	; case 2
  1636   0011D8  B4D8               	btfsc	status,2,c
  1637   0011DA  EFD7  F008         	goto	l1331
  1638   0011DE  0A01               	xorlw	1	; case 3
  1639   0011E0  B4D8               	btfsc	status,2,c
  1640   0011E2  EFDC  F008         	goto	l1333
  1641   0011E6  0A07               	xorlw	7	; case 4
  1642   0011E8  B4D8               	btfsc	status,2,c
  1643   0011EA  EFE1  F008         	goto	l1335
  1644   0011EE  EFF9  F008         	goto	l1341
  1645   0011F2                     l1341:
  1646                           
  1647                           ;flexlcd.c: 65: Lcd_Cmd(data);
  1648   0011F2  5007               	movf	Lcd_Out@data^0,w,c
  1649   0011F4  ECAF  F007         	call	_Lcd_Cmd
  1650                           
  1651                           ;flexlcd.c: 66: while(*buffer)
  1652   0011F8  EF07  F009         	goto	l1347
  1653   0011FC                     l1343:
  1654                           
  1655                           ;flexlcd.c: 67: {;flexlcd.c: 68: Lcd_Chr_CP(*buffer);
  1656   0011FC  C005  FFF6         	movff	Lcd_Out@buffer,tblptrl
  1657   001200                     	if	1	;There is more than 1 active tblptr byte
  1658   001200  0E06               	movlw	high __smallconst
  1659   001202  6EF7               	movwf	tblptrh,c
  1660   001204                     	endif
  1661   001204                     	if	0	;tblptru may be non-zero
  1662   001204                     	endif
  1663   001204                     	if	0	;tblptru may be non-zero
  1664   001204                     	endif
  1665   001204  0008               	tblrd		*
  1666   001206  50F5               	movf	tablat,w,c
  1667   001208  EC15  F007         	call	_Lcd_Chr_CP
  1668   00120C                     
  1669                           ;flexlcd.c: 69: buffer++;
  1670   00120C  2A05               	incf	Lcd_Out@buffer^0,f,c
  1671   00120E                     l1347:
  1672   00120E  C005  FFF6         	movff	Lcd_Out@buffer,tblptrl
  1673   001212                     	if	1	;There is more than 1 active tblptr byte
  1674   001212  0E06               	movlw	high __smallconst
  1675   001214  6EF7               	movwf	tblptrh,c
  1676   001216                     	endif
  1677   001216                     	if	0	;tblptru may be non-zero
  1678   001216                     	endif
  1679   001216                     	if	0	;tblptru may be non-zero
  1680   001216                     	endif
  1681   001216  0008               	tblrd		*
  1682   001218  50F5               	movf	tablat,w,c
  1683   00121A  0900               	iorlw	0
  1684   00121C  A4D8               	btfss	status,2,c
  1685   00121E  EF13  F009         	goto	u591
  1686   001222  EF15  F009         	goto	u590
  1687   001226                     u591:
  1688   001226  EFFE  F008         	goto	l1343
  1689   00122A                     u590:
  1690   00122A  0012               	return		;funcret
  1691   00122C                     __end_of_Lcd_Out:
  1692                           	callstack 0
  1693                           
  1694 ;; *************** function _Lcd_Chr_CP *****************
  1695 ;; Defined at:
  1696 ;;		line 97 in file "flexlcd.c"
  1697 ;; Parameters:    Size  Location     Type
  1698 ;;  data            1    wreg     unsigned char 
  1699 ;; Auto vars:     Size  Location     Type
  1700 ;;  data            1    2[COMRAM] unsigned char 
  1701 ;; Return value:  Size  Location     Type
  1702 ;;                  1    wreg      void 
  1703 ;; Registers used:
  1704 ;;		wreg, status,2, status,0
  1705 ;; Tracked objects:
  1706 ;;		On entry : 0/0
  1707 ;;		On exit  : 0/0
  1708 ;;		Unchanged: 0/0
  1709 ;; Data sizes:     COMRAM   BANK0   BANK1   BANK2   BANK3   BANK4   BANK5
  1710 ;;      Params:         0       0       0       0       0       0       0
  1711 ;;      Locals:         1       0       0       0       0       0       0
  1712 ;;      Temps:          2       0       0       0       0       0       0
  1713 ;;      Totals:         3       0       0       0       0       0       0
  1714 ;;Total ram usage:        3 bytes
  1715 ;; Hardware stack levels used: 1
  1716 ;; This function calls:
  1717 ;;		Nothing
  1718 ;; This function is called by:
  1719 ;;		_Lcd_Out
  1720 ;;		_Lcd_Out2
  1721 ;; This function uses a non-reentrant model
  1722 ;;
  1723                           
  1724                           	psect	text3
  1725   000E2A                     __ptext3:
  1726                           	callstack 0
  1727   000E2A                     _Lcd_Chr_CP:
  1728                           	callstack 29
  1729                           
  1730                           ;incstack = 0
  1731                           ;Lcd_Chr_CP@data stored from wreg
  1732   000E2A  6E03               	movwf	Lcd_Chr_CP@data^0,c
  1733   000E2C                     
  1734                           ;flexlcd.c: 99: PORTEbits.RE1 = 0; PORTEbits.RE0 = 1;
  1735   000E2C  9284               	bcf	132,1,c	;volatile
  1736   000E2E  8084               	bsf	132,0,c	;volatile
  1737   000E30                     
  1738                           ;flexlcd.c: 100: PORTDbits.RD7 = (data & 0b10000000)>>7; PORTDbits.RD6 = (data & 0b01000
      +                          000)>>6;
  1739   000E30  6A01               	clrf	??_Lcd_Chr_CP^0,c
  1740   000E32  AE03               	btfss	Lcd_Chr_CP@data^0,7,c
  1741   000E34  D001               	bra	u45
  1742   000E36  2A01               	incf	??_Lcd_Chr_CP^0,f,c
  1743   000E38                     u45:
  1744   000E38  0E01               	movlw	1
  1745   000E3A  1601               	andwf	??_Lcd_Chr_CP^0,f,c
  1746   000E3C  3201               	rrcf	??_Lcd_Chr_CP^0,f,c
  1747   000E3E  3201               	rrcf	??_Lcd_Chr_CP^0,f,c
  1748   000E40  5083               	movf	131,w,c	;volatile
  1749   000E42  1801               	xorwf	??_Lcd_Chr_CP^0,w,c
  1750   000E44  0B7F               	andlw	-129
  1751   000E46  1801               	xorwf	??_Lcd_Chr_CP^0,w,c
  1752   000E48  6E83               	movwf	131,c	;volatile
  1753   000E4A  C003  F001         	movff	Lcd_Chr_CP@data,??_Lcd_Chr_CP
  1754   000E4E  0E06               	movlw	6
  1755   000E50  6E02               	movwf	(??_Lcd_Chr_CP+1)^0,c
  1756   000E52                     u55:
  1757   000E52  90D8               	bcf	status,0,c
  1758   000E54  3201               	rrcf	??_Lcd_Chr_CP^0,f,c
  1759   000E56  2E02               	decfsz	(??_Lcd_Chr_CP+1)^0,f,c
  1760   000E58  EF29  F007         	goto	u55
  1761   000E5C  0E01               	movlw	1
  1762   000E5E  1601               	andwf	??_Lcd_Chr_CP^0,f,c
  1763   000E60  3A01               	swapf	??_Lcd_Chr_CP^0,f,c
  1764   000E62  4601               	rlncf	??_Lcd_Chr_CP^0,f,c
  1765   000E64  4601               	rlncf	??_Lcd_Chr_CP^0,f,c
  1766   000E66  5083               	movf	131,w,c	;volatile
  1767   000E68  1801               	xorwf	??_Lcd_Chr_CP^0,w,c
  1768   000E6A  0BBF               	andlw	-65
  1769   000E6C  1801               	xorwf	??_Lcd_Chr_CP^0,w,c
  1770   000E6E  6E83               	movwf	131,c	;volatile
  1771                           
  1772                           ;flexlcd.c: 101: PORTDbits.RD5 = (data & 0b00100000)>>5; PORTDbits.RD4 = (data & 0b00010
      +                          000)>>4;
  1773   000E70  C003  F001         	movff	Lcd_Chr_CP@data,??_Lcd_Chr_CP
  1774   000E74  0E05               	movlw	5
  1775   000E76  6E02               	movwf	(??_Lcd_Chr_CP+1)^0,c
  1776   000E78                     u65:
  1777   000E78  90D8               	bcf	status,0,c
  1778   000E7A  3201               	rrcf	??_Lcd_Chr_CP^0,f,c
  1779   000E7C  2E02               	decfsz	(??_Lcd_Chr_CP+1)^0,f,c
  1780   000E7E  EF3C  F007         	goto	u65
  1781   000E82  0E01               	movlw	1
  1782   000E84  1601               	andwf	??_Lcd_Chr_CP^0,f,c
  1783   000E86  3A01               	swapf	??_Lcd_Chr_CP^0,f,c
  1784   000E88  4601               	rlncf	??_Lcd_Chr_CP^0,f,c
  1785   000E8A  5083               	movf	131,w,c	;volatile
  1786   000E8C  1801               	xorwf	??_Lcd_Chr_CP^0,w,c
  1787   000E8E  0BDF               	andlw	-33
  1788   000E90  1801               	xorwf	??_Lcd_Chr_CP^0,w,c
  1789   000E92  6E83               	movwf	131,c	;volatile
  1790   000E94  C003  F001         	movff	Lcd_Chr_CP@data,??_Lcd_Chr_CP
  1791   000E98  3A01               	swapf	??_Lcd_Chr_CP^0,f,c
  1792   000E9A  0E0F               	movlw	15
  1793   000E9C  1601               	andwf	??_Lcd_Chr_CP^0,f,c
  1794   000E9E  0E01               	movlw	1
  1795   000EA0  1601               	andwf	??_Lcd_Chr_CP^0,f,c
  1796   000EA2  3A01               	swapf	??_Lcd_Chr_CP^0,f,c
  1797   000EA4  5083               	movf	131,w,c	;volatile
  1798   000EA6  1801               	xorwf	??_Lcd_Chr_CP^0,w,c
  1799   000EA8  0BEF               	andlw	-17
  1800   000EAA  1801               	xorwf	??_Lcd_Chr_CP^0,w,c
  1801   000EAC  6E83               	movwf	131,c	;volatile
  1802   000EAE                     
  1803                           ;flexlcd.c: 102: _delay(10);
  1804   000EAE  0E03               	movlw	3
  1805   000EB0                     u1147:
  1806   000EB0  2EE8               	decfsz	wreg,f,c
  1807   000EB2  D7FE               	bra	u1147
  1808   000EB4  0000               	nop	
  1809   000EB6                     
  1810                           ;flexlcd.c: 103: PORTEbits.RE1 = 1; _delay((unsigned long)((5)*(8000000/4000000.0))); PO
      +                          RTEbits.RE1 = 0;
  1811   000EB6  8284               	bsf	132,1,c	;volatile
  1812   000EB8  0E03               	movlw	3
  1813   000EBA                     u1157:
  1814   000EBA  2EE8               	decfsz	wreg,f,c
  1815   000EBC  D7FE               	bra	u1157
  1816   000EBE  0000               	nop	
  1817   000EC0  9284               	bcf	132,1,c	;volatile
  1818                           
  1819                           ;flexlcd.c: 104: PORTDbits.RD7 = (data & 0b00001000)>>3; PORTDbits.RD6 = (data & 0b00000
      +                          100)>>2;
  1820   000EC2  C003  F001         	movff	Lcd_Chr_CP@data,??_Lcd_Chr_CP
  1821   000EC6  90D8               	bcf	status,0,c
  1822   000EC8  3201               	rrcf	??_Lcd_Chr_CP^0,f,c
  1823   000ECA  90D8               	bcf	status,0,c
  1824   000ECC  3201               	rrcf	??_Lcd_Chr_CP^0,f,c
  1825   000ECE  90D8               	bcf	status,0,c
  1826   000ED0  3201               	rrcf	??_Lcd_Chr_CP^0,f,c
  1827   000ED2  0E01               	movlw	1
  1828   000ED4  1601               	andwf	??_Lcd_Chr_CP^0,f,c
  1829   000ED6  3201               	rrcf	??_Lcd_Chr_CP^0,f,c
  1830   000ED8  3201               	rrcf	??_Lcd_Chr_CP^0,f,c
  1831   000EDA  5083               	movf	131,w,c	;volatile
  1832   000EDC  1801               	xorwf	??_Lcd_Chr_CP^0,w,c
  1833   000EDE  0B7F               	andlw	-129
  1834   000EE0  1801               	xorwf	??_Lcd_Chr_CP^0,w,c
  1835   000EE2  6E83               	movwf	131,c	;volatile
  1836   000EE4  C003  F001         	movff	Lcd_Chr_CP@data,??_Lcd_Chr_CP
  1837   000EE8  90D8               	bcf	status,0,c
  1838   000EEA  3201               	rrcf	??_Lcd_Chr_CP^0,f,c
  1839   000EEC  90D8               	bcf	status,0,c
  1840   000EEE  3201               	rrcf	??_Lcd_Chr_CP^0,f,c
  1841   000EF0  0E01               	movlw	1
  1842   000EF2  1601               	andwf	??_Lcd_Chr_CP^0,f,c
  1843   000EF4  3A01               	swapf	??_Lcd_Chr_CP^0,f,c
  1844   000EF6  4601               	rlncf	??_Lcd_Chr_CP^0,f,c
  1845   000EF8  4601               	rlncf	??_Lcd_Chr_CP^0,f,c
  1846   000EFA  5083               	movf	131,w,c	;volatile
  1847   000EFC  1801               	xorwf	??_Lcd_Chr_CP^0,w,c
  1848   000EFE  0BBF               	andlw	-65
  1849   000F00  1801               	xorwf	??_Lcd_Chr_CP^0,w,c
  1850   000F02  6E83               	movwf	131,c	;volatile
  1851                           
  1852                           ;flexlcd.c: 105: PORTDbits.RD5 = (data & 0b00000010)>>1; PORTDbits.RD4 = (data & 0b00000
      +                          001);
  1853   000F04  C003  F001         	movff	Lcd_Chr_CP@data,??_Lcd_Chr_CP
  1854   000F08  90D8               	bcf	status,0,c
  1855   000F0A  3201               	rrcf	??_Lcd_Chr_CP^0,f,c
  1856   000F0C  0E01               	movlw	1
  1857   000F0E  1601               	andwf	??_Lcd_Chr_CP^0,f,c
  1858   000F10  3A01               	swapf	??_Lcd_Chr_CP^0,f,c
  1859   000F12  4601               	rlncf	??_Lcd_Chr_CP^0,f,c
  1860   000F14  5083               	movf	131,w,c	;volatile
  1861   000F16  1801               	xorwf	??_Lcd_Chr_CP^0,w,c
  1862   000F18  0BDF               	andlw	-33
  1863   000F1A  1801               	xorwf	??_Lcd_Chr_CP^0,w,c
  1864   000F1C  6E83               	movwf	131,c	;volatile
  1865   000F1E  C003  F001         	movff	Lcd_Chr_CP@data,??_Lcd_Chr_CP
  1866   000F22  0E01               	movlw	1
  1867   000F24  1601               	andwf	??_Lcd_Chr_CP^0,f,c
  1868   000F26  3A01               	swapf	??_Lcd_Chr_CP^0,f,c
  1869   000F28  5083               	movf	131,w,c	;volatile
  1870   000F2A  1801               	xorwf	??_Lcd_Chr_CP^0,w,c
  1871   000F2C  0BEF               	andlw	-17
  1872   000F2E  1801               	xorwf	??_Lcd_Chr_CP^0,w,c
  1873   000F30  6E83               	movwf	131,c	;volatile
  1874   000F32                     
  1875                           ;flexlcd.c: 106: _delay(10);
  1876   000F32  0E03               	movlw	3
  1877   000F34                     u1167:
  1878   000F34  2EE8               	decfsz	wreg,f,c
  1879   000F36  D7FE               	bra	u1167
  1880   000F38  0000               	nop	
  1881   000F3A                     
  1882                           ;flexlcd.c: 107: PORTEbits.RE1 = 1; _delay((unsigned long)((5)*(8000000/4000000.0))); PO
      +                          RTEbits.RE1 = 0;
  1883   000F3A  8284               	bsf	132,1,c	;volatile
  1884   000F3C  0E03               	movlw	3
  1885   000F3E                     u1177:
  1886   000F3E  2EE8               	decfsz	wreg,f,c
  1887   000F40  D7FE               	bra	u1177
  1888   000F42  0000               	nop	
  1889   000F44  9284               	bcf	132,1,c	;volatile
  1890   000F46                     
  1891                           ;flexlcd.c: 108: _delay((unsigned long)((5)*(8000000/4000000.0))); _delay((unsigned long
      +                          )((5500)*(8000000/4000000.0)));
  1892   000F46  0E03               	movlw	3
  1893   000F48                     u1187:
  1894   000F48  2EE8               	decfsz	wreg,f,c
  1895   000F4A  D7FE               	bra	u1187
  1896   000F4C  0000               	nop	
  1897   000F4E  0E0F               	movlw	15
  1898   000F50  6E01               	movwf	??_Lcd_Chr_CP^0,c
  1899   000F52  0E48               	movlw	72
  1900   000F54                     u1197:
  1901   000F54  2EE8               	decfsz	wreg,f,c
  1902   000F56  D7FE               	bra	u1197
  1903   000F58  2E01               	decfsz	??_Lcd_Chr_CP^0,f,c
  1904   000F5A  D7FC               	bra	u1197
  1905   000F5C  0012               	return		;funcret
  1906   000F5E                     __end_of_Lcd_Chr_CP:
  1907                           	callstack 0
  1908                           
  1909 ;; *************** function _Lcd_Init *****************
  1910 ;; Defined at:
  1911 ;;		line 9 in file "flexlcd.c"
  1912 ;; Parameters:    Size  Location     Type
  1913 ;;		None
  1914 ;; Auto vars:     Size  Location     Type
  1915 ;;  data            1    4[COMRAM] unsigned char 
  1916 ;; Return value:  Size  Location     Type
  1917 ;;                  1    wreg      void 
  1918 ;; Registers used:
  1919 ;;		wreg, status,2, status,0, cstack
  1920 ;; Tracked objects:
  1921 ;;		On entry : 0/0
  1922 ;;		On exit  : 0/0
  1923 ;;		Unchanged: 0/0
  1924 ;; Data sizes:     COMRAM   BANK0   BANK1   BANK2   BANK3   BANK4   BANK5
  1925 ;;      Params:         0       0       0       0       0       0       0
  1926 ;;      Locals:         1       0       0       0       0       0       0
  1927 ;;      Temps:          1       0       0       0       0       0       0
  1928 ;;      Totals:         2       0       0       0       0       0       0
  1929 ;;Total ram usage:        2 bytes
  1930 ;; Hardware stack levels used: 1
  1931 ;; Hardware stack levels required when called: 1
  1932 ;; This function calls:
  1933 ;;		_Lcd_Cmd
  1934 ;; This function is called by:
  1935 ;;		_main
  1936 ;; This function uses a non-reentrant model
  1937 ;;
  1938                           
  1939                           	psect	text4
  1940   00108A                     __ptext4:
  1941                           	callstack 0
  1942   00108A                     _Lcd_Init:
  1943                           	callstack 29
  1944   00108A                     
  1945                           ;flexlcd.c: 10: unsigned char data;;flexlcd.c: 11: TRISDbits.TRISD7 = 0;
  1946   00108A  9E95               	bcf	149,7,c	;volatile
  1947                           
  1948                           ;flexlcd.c: 12: TRISDbits.TRISD6 = 0;
  1949   00108C  9C95               	bcf	149,6,c	;volatile
  1950                           
  1951                           ;flexlcd.c: 13: TRISDbits.TRISD5 = 0;
  1952   00108E  9A95               	bcf	149,5,c	;volatile
  1953                           
  1954                           ;flexlcd.c: 14: TRISDbits.TRISD4 = 0;
  1955   001090  9895               	bcf	149,4,c	;volatile
  1956                           
  1957                           ;flexlcd.c: 15: TRISEbits.TRISE1 = 0;
  1958   001092  9296               	bcf	150,1,c	;volatile
  1959                           
  1960                           ;flexlcd.c: 16: TRISEbits.TRISE0 = 0;
  1961   001094  9096               	bcf	150,0,c	;volatile
  1962                           
  1963                           ;flexlcd.c: 17: TRISEbits.TRISE2 = 0;
  1964   001096  9496               	bcf	150,2,c	;volatile
  1965                           
  1966                           ;flexlcd.c: 18: PORTEbits.RE2 = 0;
  1967   001098  9484               	bcf	132,2,c	;volatile
  1968                           
  1969                           ;flexlcd.c: 19: PORTDbits.RD7 = 0;
  1970   00109A  9E83               	bcf	131,7,c	;volatile
  1971                           
  1972                           ;flexlcd.c: 20: PORTDbits.RD6 = 0;
  1973   00109C  9C83               	bcf	131,6,c	;volatile
  1974                           
  1975                           ;flexlcd.c: 21: PORTDbits.RD5 = 0;
  1976   00109E  9A83               	bcf	131,5,c	;volatile
  1977                           
  1978                           ;flexlcd.c: 22: PORTDbits.RD4 = 0;
  1979   0010A0  9883               	bcf	131,4,c	;volatile
  1980                           
  1981                           ;flexlcd.c: 23: PORTEbits.RE1 = 0;
  1982   0010A2  9284               	bcf	132,1,c	;volatile
  1983                           
  1984                           ;flexlcd.c: 24: PORTEbits.RE0 = 0;
  1985   0010A4  9084               	bcf	132,0,c	;volatile
  1986   0010A6                     
  1987                           ;flexlcd.c: 25: _delay((unsigned long)((5500)*(8000000/4000000.0)));
  1988   0010A6  0E0F               	movlw	15
  1989   0010A8  6E04               	movwf	??_Lcd_Init^0,c
  1990   0010AA  0E48               	movlw	72
  1991   0010AC                     u1207:
  1992   0010AC  2EE8               	decfsz	wreg,f,c
  1993   0010AE  D7FE               	bra	u1207
  1994   0010B0  2E04               	decfsz	??_Lcd_Init^0,f,c
  1995   0010B2  D7FC               	bra	u1207
  1996                           
  1997                           ;flexlcd.c: 26: _delay((unsigned long)((5500)*(8000000/4000000.0)));
  1998   0010B4  0E0F               	movlw	15
  1999   0010B6  6E04               	movwf	??_Lcd_Init^0,c
  2000   0010B8  0E48               	movlw	72
  2001   0010BA                     u1217:
  2002   0010BA  2EE8               	decfsz	wreg,f,c
  2003   0010BC  D7FE               	bra	u1217
  2004   0010BE  2E04               	decfsz	??_Lcd_Init^0,f,c
  2005   0010C0  D7FC               	bra	u1217
  2006                           
  2007                           ;flexlcd.c: 27: _delay((unsigned long)((5500)*(8000000/4000000.0)));
  2008   0010C2  0E0F               	movlw	15
  2009   0010C4  6E04               	movwf	??_Lcd_Init^0,c
  2010   0010C6  0E48               	movlw	72
  2011   0010C8                     u1227:
  2012   0010C8  2EE8               	decfsz	wreg,f,c
  2013   0010CA  D7FE               	bra	u1227
  2014   0010CC  2E04               	decfsz	??_Lcd_Init^0,f,c
  2015   0010CE  D7FC               	bra	u1227
  2016                           
  2017                           ;flexlcd.c: 28: _delay((unsigned long)((5500)*(8000000/4000000.0)));
  2018   0010D0  0E0F               	movlw	15
  2019   0010D2  6E04               	movwf	??_Lcd_Init^0,c
  2020   0010D4  0E48               	movlw	72
  2021   0010D6                     u1237:
  2022   0010D6  2EE8               	decfsz	wreg,f,c
  2023   0010D8  D7FE               	bra	u1237
  2024   0010DA  2E04               	decfsz	??_Lcd_Init^0,f,c
  2025   0010DC  D7FC               	bra	u1237
  2026                           
  2027                           ;flexlcd.c: 29: _delay((unsigned long)((5500)*(8000000/4000000.0)));
  2028   0010DE  0E0F               	movlw	15
  2029   0010E0  6E04               	movwf	??_Lcd_Init^0,c
  2030   0010E2  0E48               	movlw	72
  2031   0010E4                     u1247:
  2032   0010E4  2EE8               	decfsz	wreg,f,c
  2033   0010E6  D7FE               	bra	u1247
  2034   0010E8  2E04               	decfsz	??_Lcd_Init^0,f,c
  2035   0010EA  D7FC               	bra	u1247
  2036                           
  2037                           ;flexlcd.c: 30: _delay((unsigned long)((5500)*(8000000/4000000.0)));
  2038   0010EC  0E0F               	movlw	15
  2039   0010EE  6E04               	movwf	??_Lcd_Init^0,c
  2040   0010F0  0E48               	movlw	72
  2041   0010F2                     u1257:
  2042   0010F2  2EE8               	decfsz	wreg,f,c
  2043   0010F4  D7FE               	bra	u1257
  2044   0010F6  2E04               	decfsz	??_Lcd_Init^0,f,c
  2045   0010F8  D7FC               	bra	u1257
  2046   0010FA                     
  2047                           ;flexlcd.c: 31: for(data = 1; data < 4; data ++)
  2048   0010FA  0E01               	movlw	1
  2049   0010FC  6E05               	movwf	Lcd_Init@data^0,c
  2050   0010FE                     l149:
  2051                           
  2052                           ;flexlcd.c: 32: {;flexlcd.c: 33: PORTDbits.RD7 = 0; PORTDbits.RD6 = 0; PORTDbits.RD5 = 1
      +                          ; PORTDbits.RD4 = 1; PORTEbits.RE1 = 0;
  2053   0010FE  9E83               	bcf	131,7,c	;volatile
  2054   001100  9C83               	bcf	131,6,c	;volatile
  2055   001102  8A83               	bsf	131,5,c	;volatile
  2056   001104  8883               	bsf	131,4,c	;volatile
  2057   001106  9284               	bcf	132,1,c	;volatile
  2058                           
  2059                           ;flexlcd.c: 34: PORTEbits.RE0 = 0; PORTDbits.RD7 = 0; PORTDbits.RD6 = 0; PORTDbits.RD5 =
      +                           1; PORTDbits.RD4 = 1;
  2060   001108  9084               	bcf	132,0,c	;volatile
  2061   00110A  9E83               	bcf	131,7,c	;volatile
  2062   00110C  9C83               	bcf	131,6,c	;volatile
  2063   00110E  8A83               	bsf	131,5,c	;volatile
  2064   001110  8883               	bsf	131,4,c	;volatile
  2065                           
  2066                           ;flexlcd.c: 35: PORTEbits.RE1 = 1; PORTEbits.RE0 = 0;
  2067   001112  8284               	bsf	132,1,c	;volatile
  2068   001114  9084               	bcf	132,0,c	;volatile
  2069   001116                     
  2070                           ;flexlcd.c: 36: _delay((unsigned long)((5)*(8000000/4000000.0)));
  2071   001116  0E03               	movlw	3
  2072   001118                     u1267:
  2073   001118  2EE8               	decfsz	wreg,f,c
  2074   00111A  D7FE               	bra	u1267
  2075   00111C  0000               	nop	
  2076   00111E                     
  2077                           ;flexlcd.c: 37: PORTDbits.RD7 = 0; PORTDbits.RD6 = 0; PORTDbits.RD5 = 1; PORTDbits.RD4 =
      +                           1; PORTEbits.RE1 = 0;
  2078   00111E  9E83               	bcf	131,7,c	;volatile
  2079   001120  9C83               	bcf	131,6,c	;volatile
  2080   001122  8A83               	bsf	131,5,c	;volatile
  2081   001124  8883               	bsf	131,4,c	;volatile
  2082   001126  9284               	bcf	132,1,c	;volatile
  2083   001128                     
  2084                           ;flexlcd.c: 38: PORTEbits.RE0 = 0;
  2085   001128  9084               	bcf	132,0,c	;volatile
  2086                           
  2087                           ;flexlcd.c: 39: _delay((unsigned long)((5500)*(8000000/4000000.0)));
  2088   00112A  0E0F               	movlw	15
  2089   00112C  6E04               	movwf	??_Lcd_Init^0,c
  2090   00112E  0E48               	movlw	72
  2091   001130                     u1277:
  2092   001130  2EE8               	decfsz	wreg,f,c
  2093   001132  D7FE               	bra	u1277
  2094   001134  2E04               	decfsz	??_Lcd_Init^0,f,c
  2095   001136  D7FC               	bra	u1277
  2096   001138  2A05               	incf	Lcd_Init@data^0,f,c
  2097   00113A  0E03               	movlw	3
  2098   00113C  6405               	cpfsgt	Lcd_Init@data^0,c
  2099   00113E  EFA3  F008         	goto	u391
  2100   001142  EFA5  F008         	goto	u390
  2101   001146                     u391:
  2102   001146  EF7F  F008         	goto	l149
  2103   00114A                     u390:
  2104   00114A                     
  2105                           ;flexlcd.c: 40: };flexlcd.c: 41: PORTDbits.RD7 = 0; PORTDbits.RD6 = 0; PORTDbits.RD5 = 1
      +                          ; PORTDbits.RD4 = 0; PORTEbits.RE1 = 0; PORTEbits.RE0 = 0;
  2106   00114A  9E83               	bcf	131,7,c	;volatile
  2107   00114C  9C83               	bcf	131,6,c	;volatile
  2108   00114E  8A83               	bsf	131,5,c	;volatile
  2109   001150  9883               	bcf	131,4,c	;volatile
  2110   001152  9284               	bcf	132,1,c	;volatile
  2111   001154  9084               	bcf	132,0,c	;volatile
  2112                           
  2113                           ;flexlcd.c: 42: PORTDbits.RD7 = 0; PORTDbits.RD6 = 0; PORTDbits.RD5 = 1; PORTDbits.RD4 =
      +                           0; PORTEbits.RE1 = 1; PORTEbits.RE0 = 0;
  2114   001156  9E83               	bcf	131,7,c	;volatile
  2115   001158  9C83               	bcf	131,6,c	;volatile
  2116   00115A  8A83               	bsf	131,5,c	;volatile
  2117   00115C  9883               	bcf	131,4,c	;volatile
  2118   00115E  8284               	bsf	132,1,c	;volatile
  2119   001160  9084               	bcf	132,0,c	;volatile
  2120   001162                     
  2121                           ;flexlcd.c: 43: _delay((unsigned long)((5)*(8000000/4000000.0)));
  2122   001162  0E03               	movlw	3
  2123   001164                     u1287:
  2124   001164  2EE8               	decfsz	wreg,f,c
  2125   001166  D7FE               	bra	u1287
  2126   001168  0000               	nop	
  2127   00116A                     
  2128                           ;flexlcd.c: 44: PORTDbits.RD7 = 0; PORTDbits.RD6 = 0; PORTDbits.RD5 = 1; PORTDbits.RD4 =
      +                           0; PORTEbits.RE1 = 0; PORTEbits.RE0 = 0;
  2129   00116A  9E83               	bcf	131,7,c	;volatile
  2130   00116C  9C83               	bcf	131,6,c	;volatile
  2131   00116E  8A83               	bsf	131,5,c	;volatile
  2132   001170  9883               	bcf	131,4,c	;volatile
  2133   001172  9284               	bcf	132,1,c	;volatile
  2134   001174  9084               	bcf	132,0,c	;volatile
  2135                           
  2136                           ;flexlcd.c: 45: _delay((unsigned long)((5500)*(8000000/4000000.0)));
  2137   001176  0E0F               	movlw	15
  2138   001178  6E04               	movwf	??_Lcd_Init^0,c
  2139   00117A  0E48               	movlw	72
  2140   00117C                     u1297:
  2141   00117C  2EE8               	decfsz	wreg,f,c
  2142   00117E  D7FE               	bra	u1297
  2143   001180  2E04               	decfsz	??_Lcd_Init^0,f,c
  2144   001182  D7FC               	bra	u1297
  2145   001184  0E28               	movlw	40
  2146   001186  ECAF  F007         	call	_Lcd_Cmd
  2147   00118A  0E10               	movlw	16
  2148   00118C  ECAF  F007         	call	_Lcd_Cmd
  2149   001190  0E01               	movlw	1
  2150   001192  ECAF  F007         	call	_Lcd_Cmd
  2151   001196  0E0F               	movlw	15
  2152   001198  ECAF  F007         	call	_Lcd_Cmd
  2153   00119C  0012               	return		;funcret
  2154   00119E                     __end_of_Lcd_Init:
  2155                           	callstack 0
  2156                           
  2157 ;; *************** function _Lcd_Cmd *****************
  2158 ;; Defined at:
  2159 ;;		line 112 in file "flexlcd.c"
  2160 ;; Parameters:    Size  Location     Type
  2161 ;;  data            1    wreg     unsigned char 
  2162 ;; Auto vars:     Size  Location     Type
  2163 ;;  data            1    2[COMRAM] unsigned char 
  2164 ;; Return value:  Size  Location     Type
  2165 ;;                  1    wreg      void 
  2166 ;; Registers used:
  2167 ;;		wreg, status,2, status,0
  2168 ;; Tracked objects:
  2169 ;;		On entry : 0/0
  2170 ;;		On exit  : 0/0
  2171 ;;		Unchanged: 0/0
  2172 ;; Data sizes:     COMRAM   BANK0   BANK1   BANK2   BANK3   BANK4   BANK5
  2173 ;;      Params:         0       0       0       0       0       0       0
  2174 ;;      Locals:         1       0       0       0       0       0       0
  2175 ;;      Temps:          2       0       0       0       0       0       0
  2176 ;;      Totals:         3       0       0       0       0       0       0
  2177 ;;Total ram usage:        3 bytes
  2178 ;; Hardware stack levels used: 1
  2179 ;; This function calls:
  2180 ;;		Nothing
  2181 ;; This function is called by:
  2182 ;;		_main
  2183 ;;		_Lcd_Init
  2184 ;;		_Lcd_Out
  2185 ;;		_Lcd_Out2
  2186 ;; This function uses a non-reentrant model
  2187 ;;
  2188                           
  2189                           	psect	text5
  2190   000F5E                     __ptext5:
  2191                           	callstack 0
  2192   000F5E                     _Lcd_Cmd:
  2193                           	callstack 29
  2194                           
  2195                           ;incstack = 0
  2196                           ;Lcd_Cmd@data stored from wreg
  2197   000F5E  6E03               	movwf	Lcd_Cmd@data^0,c
  2198   000F60                     
  2199                           ;flexlcd.c: 114: PORTEbits.RE1 = 0; PORTEbits.RE0 = 0;
  2200   000F60  9284               	bcf	132,1,c	;volatile
  2201   000F62  9084               	bcf	132,0,c	;volatile
  2202   000F64                     
  2203                           ;flexlcd.c: 115: PORTDbits.RD7 = (data & 0b10000000)>>7; PORTDbits.RD6 = (data & 0b01000
      +                          000)>>6;
  2204   000F64  6A01               	clrf	??_Lcd_Cmd^0,c
  2205   000F66  AE03               	btfss	Lcd_Cmd@data^0,7,c
  2206   000F68  D001               	bra	u15
  2207   000F6A  2A01               	incf	??_Lcd_Cmd^0,f,c
  2208   000F6C                     u15:
  2209   000F6C  0E01               	movlw	1
  2210   000F6E  1601               	andwf	??_Lcd_Cmd^0,f,c
  2211   000F70  3201               	rrcf	??_Lcd_Cmd^0,f,c
  2212   000F72  3201               	rrcf	??_Lcd_Cmd^0,f,c
  2213   000F74  5083               	movf	131,w,c	;volatile
  2214   000F76  1801               	xorwf	??_Lcd_Cmd^0,w,c
  2215   000F78  0B7F               	andlw	-129
  2216   000F7A  1801               	xorwf	??_Lcd_Cmd^0,w,c
  2217   000F7C  6E83               	movwf	131,c	;volatile
  2218   000F7E  C003  F001         	movff	Lcd_Cmd@data,??_Lcd_Cmd
  2219   000F82  0E06               	movlw	6
  2220   000F84  6E02               	movwf	(??_Lcd_Cmd+1)^0,c
  2221   000F86                     u25:
  2222   000F86  90D8               	bcf	status,0,c
  2223   000F88  3201               	rrcf	??_Lcd_Cmd^0,f,c
  2224   000F8A  2E02               	decfsz	(??_Lcd_Cmd+1)^0,f,c
  2225   000F8C  EFC3  F007         	goto	u25
  2226   000F90  0E01               	movlw	1
  2227   000F92  1601               	andwf	??_Lcd_Cmd^0,f,c
  2228   000F94  3A01               	swapf	??_Lcd_Cmd^0,f,c
  2229   000F96  4601               	rlncf	??_Lcd_Cmd^0,f,c
  2230   000F98  4601               	rlncf	??_Lcd_Cmd^0,f,c
  2231   000F9A  5083               	movf	131,w,c	;volatile
  2232   000F9C  1801               	xorwf	??_Lcd_Cmd^0,w,c
  2233   000F9E  0BBF               	andlw	-65
  2234   000FA0  1801               	xorwf	??_Lcd_Cmd^0,w,c
  2235   000FA2  6E83               	movwf	131,c	;volatile
  2236                           
  2237                           ;flexlcd.c: 116: PORTDbits.RD5 = (data & 0b00100000)>>5; PORTDbits.RD4 = (data & 0b00010
      +                          000)>>4;
  2238   000FA4  C003  F001         	movff	Lcd_Cmd@data,??_Lcd_Cmd
  2239   000FA8  0E05               	movlw	5
  2240   000FAA  6E02               	movwf	(??_Lcd_Cmd+1)^0,c
  2241   000FAC                     u35:
  2242   000FAC  90D8               	bcf	status,0,c
  2243   000FAE  3201               	rrcf	??_Lcd_Cmd^0,f,c
  2244   000FB0  2E02               	decfsz	(??_Lcd_Cmd+1)^0,f,c
  2245   000FB2  EFD6  F007         	goto	u35
  2246   000FB6  0E01               	movlw	1
  2247   000FB8  1601               	andwf	??_Lcd_Cmd^0,f,c
  2248   000FBA  3A01               	swapf	??_Lcd_Cmd^0,f,c
  2249   000FBC  4601               	rlncf	??_Lcd_Cmd^0,f,c
  2250   000FBE  5083               	movf	131,w,c	;volatile
  2251   000FC0  1801               	xorwf	??_Lcd_Cmd^0,w,c
  2252   000FC2  0BDF               	andlw	-33
  2253   000FC4  1801               	xorwf	??_Lcd_Cmd^0,w,c
  2254   000FC6  6E83               	movwf	131,c	;volatile
  2255   000FC8  C003  F001         	movff	Lcd_Cmd@data,??_Lcd_Cmd
  2256   000FCC  3A01               	swapf	??_Lcd_Cmd^0,f,c
  2257   000FCE  0E0F               	movlw	15
  2258   000FD0  1601               	andwf	??_Lcd_Cmd^0,f,c
  2259   000FD2  0E01               	movlw	1
  2260   000FD4  1601               	andwf	??_Lcd_Cmd^0,f,c
  2261   000FD6  3A01               	swapf	??_Lcd_Cmd^0,f,c
  2262   000FD8  5083               	movf	131,w,c	;volatile
  2263   000FDA  1801               	xorwf	??_Lcd_Cmd^0,w,c
  2264   000FDC  0BEF               	andlw	-17
  2265   000FDE  1801               	xorwf	??_Lcd_Cmd^0,w,c
  2266   000FE0  6E83               	movwf	131,c	;volatile
  2267   000FE2                     
  2268                           ;flexlcd.c: 117: _delay(10);
  2269   000FE2  0E03               	movlw	3
  2270   000FE4                     u1307:
  2271   000FE4  2EE8               	decfsz	wreg,f,c
  2272   000FE6  D7FE               	bra	u1307
  2273   000FE8  0000               	nop	
  2274   000FEA                     
  2275                           ;flexlcd.c: 118: PORTEbits.RE1 = 1; _delay((unsigned long)((5)*(8000000/4000000.0))); PO
      +                          RTEbits.RE1 = 0;
  2276   000FEA  8284               	bsf	132,1,c	;volatile
  2277   000FEC  0E03               	movlw	3
  2278   000FEE                     u1317:
  2279   000FEE  2EE8               	decfsz	wreg,f,c
  2280   000FF0  D7FE               	bra	u1317
  2281   000FF2  0000               	nop	
  2282   000FF4  9284               	bcf	132,1,c	;volatile
  2283                           
  2284                           ;flexlcd.c: 119: PORTDbits.RD7 = (data & 0b00001000)>>3; PORTDbits.RD6 = (data & 0b00000
      +                          100)>>2;
  2285   000FF6  C003  F001         	movff	Lcd_Cmd@data,??_Lcd_Cmd
  2286   000FFA  90D8               	bcf	status,0,c
  2287   000FFC  3201               	rrcf	??_Lcd_Cmd^0,f,c
  2288   000FFE  90D8               	bcf	status,0,c
  2289   001000  3201               	rrcf	??_Lcd_Cmd^0,f,c
  2290   001002  90D8               	bcf	status,0,c
  2291   001004  3201               	rrcf	??_Lcd_Cmd^0,f,c
  2292   001006  0E01               	movlw	1
  2293   001008  1601               	andwf	??_Lcd_Cmd^0,f,c
  2294   00100A  3201               	rrcf	??_Lcd_Cmd^0,f,c
  2295   00100C  3201               	rrcf	??_Lcd_Cmd^0,f,c
  2296   00100E  5083               	movf	131,w,c	;volatile
  2297   001010  1801               	xorwf	??_Lcd_Cmd^0,w,c
  2298   001012  0B7F               	andlw	-129
  2299   001014  1801               	xorwf	??_Lcd_Cmd^0,w,c
  2300   001016  6E83               	movwf	131,c	;volatile
  2301   001018  C003  F001         	movff	Lcd_Cmd@data,??_Lcd_Cmd
  2302   00101C  90D8               	bcf	status,0,c
  2303   00101E  3201               	rrcf	??_Lcd_Cmd^0,f,c
  2304   001020  90D8               	bcf	status,0,c
  2305   001022  3201               	rrcf	??_Lcd_Cmd^0,f,c
  2306   001024  0E01               	movlw	1
  2307   001026  1601               	andwf	??_Lcd_Cmd^0,f,c
  2308   001028  3A01               	swapf	??_Lcd_Cmd^0,f,c
  2309   00102A  4601               	rlncf	??_Lcd_Cmd^0,f,c
  2310   00102C  4601               	rlncf	??_Lcd_Cmd^0,f,c
  2311   00102E  5083               	movf	131,w,c	;volatile
  2312   001030  1801               	xorwf	??_Lcd_Cmd^0,w,c
  2313   001032  0BBF               	andlw	-65
  2314   001034  1801               	xorwf	??_Lcd_Cmd^0,w,c
  2315   001036  6E83               	movwf	131,c	;volatile
  2316                           
  2317                           ;flexlcd.c: 120: PORTDbits.RD5 = (data & 0b00000010)>>1; PORTDbits.RD4 = (data & 0b00000
      +                          001);
  2318   001038  C003  F001         	movff	Lcd_Cmd@data,??_Lcd_Cmd
  2319   00103C  90D8               	bcf	status,0,c
  2320   00103E  3201               	rrcf	??_Lcd_Cmd^0,f,c
  2321   001040  0E01               	movlw	1
  2322   001042  1601               	andwf	??_Lcd_Cmd^0,f,c
  2323   001044  3A01               	swapf	??_Lcd_Cmd^0,f,c
  2324   001046  4601               	rlncf	??_Lcd_Cmd^0,f,c
  2325   001048  5083               	movf	131,w,c	;volatile
  2326   00104A  1801               	xorwf	??_Lcd_Cmd^0,w,c
  2327   00104C  0BDF               	andlw	-33
  2328   00104E  1801               	xorwf	??_Lcd_Cmd^0,w,c
  2329   001050  6E83               	movwf	131,c	;volatile
  2330   001052  C003  F001         	movff	Lcd_Cmd@data,??_Lcd_Cmd
  2331   001056  0E01               	movlw	1
  2332   001058  1601               	andwf	??_Lcd_Cmd^0,f,c
  2333   00105A  3A01               	swapf	??_Lcd_Cmd^0,f,c
  2334   00105C  5083               	movf	131,w,c	;volatile
  2335   00105E  1801               	xorwf	??_Lcd_Cmd^0,w,c
  2336   001060  0BEF               	andlw	-17
  2337   001062  1801               	xorwf	??_Lcd_Cmd^0,w,c
  2338   001064  6E83               	movwf	131,c	;volatile
  2339   001066                     
  2340                           ;flexlcd.c: 121: _delay(10);
  2341   001066  0E03               	movlw	3
  2342   001068                     u1327:
  2343   001068  2EE8               	decfsz	wreg,f,c
  2344   00106A  D7FE               	bra	u1327
  2345   00106C  0000               	nop	
  2346   00106E                     
  2347                           ;flexlcd.c: 122: PORTEbits.RE1 = 1; _delay((unsigned long)((5)*(8000000/4000000.0))); PO
      +                          RTEbits.RE1 = 0;
  2348   00106E  8284               	bsf	132,1,c	;volatile
  2349   001070  0E03               	movlw	3
  2350   001072                     u1337:
  2351   001072  2EE8               	decfsz	wreg,f,c
  2352   001074  D7FE               	bra	u1337
  2353   001076  0000               	nop	
  2354   001078  9284               	bcf	132,1,c	;volatile
  2355   00107A                     
  2356                           ;flexlcd.c: 123: _delay((unsigned long)((5500)*(8000000/4000000.0)));
  2357   00107A  0E0F               	movlw	15
  2358   00107C  6E01               	movwf	??_Lcd_Cmd^0,c
  2359   00107E  0E48               	movlw	72
  2360   001080                     u1347:
  2361   001080  2EE8               	decfsz	wreg,f,c
  2362   001082  D7FE               	bra	u1347
  2363   001084  2E01               	decfsz	??_Lcd_Cmd^0,f,c
  2364   001086  D7FC               	bra	u1347
  2365   001088  0012               	return		;funcret
  2366   00108A                     __end_of_Lcd_Cmd:
  2367                           	callstack 0
  2368                           
  2369                           	psect	rparam
  2370   000000                     
  2371                           	psect	idloc
  2372                           
  2373                           ;Config register IDLOC0 @ 0x200000
  2374                           ;	unspecified, using default values
  2375   200000                     	org	2097152
  2376   200000  FF                 	db	255
  2377                           
  2378                           ;Config register IDLOC1 @ 0x200001
  2379                           ;	unspecified, using default values
  2380   200001                     	org	2097153
  2381   200001  FF                 	db	255
  2382                           
  2383                           ;Config register IDLOC2 @ 0x200002
  2384                           ;	unspecified, using default values
  2385   200002                     	org	2097154
  2386   200002  FF                 	db	255
  2387                           
  2388                           ;Config register IDLOC3 @ 0x200003
  2389                           ;	unspecified, using default values
  2390   200003                     	org	2097155
  2391   200003  FF                 	db	255
  2392                           
  2393                           ;Config register IDLOC4 @ 0x200004
  2394                           ;	unspecified, using default values
  2395   200004                     	org	2097156
  2396   200004  FF                 	db	255
  2397                           
  2398                           ;Config register IDLOC5 @ 0x200005
  2399                           ;	unspecified, using default values
  2400   200005                     	org	2097157
  2401   200005  FF                 	db	255
  2402                           
  2403                           ;Config register IDLOC6 @ 0x200006
  2404                           ;	unspecified, using default values
  2405   200006                     	org	2097158
  2406   200006  FF                 	db	255
  2407                           
  2408                           ;Config register IDLOC7 @ 0x200007
  2409                           ;	unspecified, using default values
  2410   200007                     	org	2097159
  2411   200007  FF                 	db	255
  2412                           
  2413                           	psect	config
  2414                           
  2415                           ; Padding undefined space
  2416   300000                     	org	3145728
  2417   300000  FF                 	db	255
  2418                           
  2419                           ;Config register CONFIG1H @ 0x300001
  2420                           ;	Oscillator Selection bits
  2421                           ;	OSC = HS, HS oscillator
  2422                           ;	Fail-Safe Clock Monitor Enable bit
  2423                           ;	FCMEN = OFF, Fail-Safe Clock Monitor disabled
  2424                           ;	Internal/External Oscillator Switchover bit
  2425                           ;	IESO = OFF, Oscillator Switchover mode disabled
  2426   300001                     	org	3145729
  2427   300001  02                 	db	2
  2428                           
  2429                           ;Config register CONFIG2L @ 0x300002
  2430                           ;	Power-up Timer Enable bit
  2431                           ;	PWRT = OFF, PWRT disabled
  2432                           ;	Brown-out Reset Enable bits
  2433                           ;	BOREN = SBORDIS, Brown-out Reset enabled in hardware only (SBOREN is disabled)
  2434                           ;	Brown Out Reset Voltage bits
  2435                           ;	BORV = 3, Minimum setting
  2436   300002                     	org	3145730
  2437   300002  1F                 	db	31
  2438                           
  2439                           ;Config register CONFIG2H @ 0x300003
  2440                           ;	Watchdog Timer Enable bit
  2441                           ;	WDT = OFF, WDT disabled (control is placed on the SWDTEN bit)
  2442                           ;	Watchdog Timer Postscale Select bits
  2443                           ;	WDTPS = 32768, 1:32768
  2444   300003                     	org	3145731
  2445   300003  1E                 	db	30
  2446                           
  2447                           ; Padding undefined space
  2448   300004                     	org	3145732
  2449   300004  FF                 	db	255
  2450                           
  2451                           ;Config register CONFIG3H @ 0x300005
  2452                           ;	CCP2 MUX bit
  2453                           ;	CCP2MX = PORTC, CCP2 input/output is multiplexed with RC1
  2454                           ;	PORTB A/D Enable bit
  2455                           ;	PBADEN = OFF, PORTB<4:0> pins are configured as digital I/O on Reset
  2456                           ;	Low-Power Timer1 Oscillator Enable bit
  2457                           ;	LPT1OSC = OFF, Timer1 configured for higher power operation
  2458                           ;	MCLR Pin Enable bit
  2459                           ;	MCLRE = OFF, RE3 input pin enabled; MCLR disabled
  2460   300005                     	org	3145733
  2461   300005  01                 	db	1
  2462                           
  2463                           ;Config register CONFIG4L @ 0x300006
  2464                           ;	Stack Full/Underflow Reset Enable bit
  2465                           ;	STVREN = ON, Stack full/underflow will cause Reset
  2466                           ;	Single-Supply ICSP Enable bit
  2467                           ;	LVP = ON, Single-Supply ICSP enabled
  2468                           ;	Extended Instruction Set Enable bit
  2469                           ;	XINST = OFF, Instruction set extension and Indexed Addressing mode disabled (Legacy mo
      +                          de)
  2470                           ;	Background Debugger Enable bit
  2471                           ;	DEBUG = 0x1, unprogrammed default
  2472   300006                     	org	3145734
  2473   300006  85                 	db	133
  2474                           
  2475                           ; Padding undefined space
  2476   300007                     	org	3145735
  2477   300007  FF                 	db	255
  2478                           
  2479                           ;Config register CONFIG5L @ 0x300008
  2480                           ;	Code Protection bit
  2481                           ;	CP0 = OFF, Block 0 (000800-001FFFh) not code-protected
  2482                           ;	Code Protection bit
  2483                           ;	CP1 = OFF, Block 1 (002000-003FFFh) not code-protected
  2484                           ;	Code Protection bit
  2485                           ;	CP2 = OFF, Block 2 (004000-005FFFh) not code-protected
  2486                           ;	Code Protection bit
  2487                           ;	CP3 = OFF, Block 3 (006000-007FFFh) not code-protected
  2488   300008                     	org	3145736
  2489   300008  0F                 	db	15
  2490                           
  2491                           ;Config register CONFIG5H @ 0x300009
  2492                           ;	Boot Block Code Protection bit
  2493                           ;	CPB = OFF, Boot block (000000-0007FFh) not code-protected
  2494                           ;	Data EEPROM Code Protection bit
  2495                           ;	CPD = OFF, Data EEPROM not code-protected
  2496   300009                     	org	3145737
  2497   300009  C0                 	db	192
  2498                           
  2499                           ;Config register CONFIG6L @ 0x30000A
  2500                           ;	Write Protection bit
  2501                           ;	WRT0 = OFF, Block 0 (000800-001FFFh) not write-protected
  2502                           ;	Write Protection bit
  2503                           ;	WRT1 = OFF, Block 1 (002000-003FFFh) not write-protected
  2504                           ;	Write Protection bit
  2505                           ;	WRT2 = OFF, Block 2 (004000-005FFFh) not write-protected
  2506                           ;	Write Protection bit
  2507                           ;	WRT3 = OFF, Block 3 (006000-007FFFh) not write-protected
  2508   30000A                     	org	3145738
  2509   30000A  0F                 	db	15
  2510                           
  2511                           ;Config register CONFIG6H @ 0x30000B
  2512                           ;	Configuration Register Write Protection bit
  2513                           ;	WRTC = OFF, Configuration registers (300000-3000FFh) not write-protected
  2514                           ;	Boot Block Write Protection bit
  2515                           ;	WRTB = OFF, Boot block (000000-0007FFh) not write-protected
  2516                           ;	Data EEPROM Write Protection bit
  2517                           ;	WRTD = OFF, Data EEPROM not write-protected
  2518   30000B                     	org	3145739
  2519   30000B  E0                 	db	224
  2520                           
  2521                           ;Config register CONFIG7L @ 0x30000C
  2522                           ;	Table Read Protection bit
  2523                           ;	EBTR0 = OFF, Block 0 (000800-001FFFh) not protected from table reads executed in other
      +                           blocks
  2524                           ;	Table Read Protection bit
  2525                           ;	EBTR1 = OFF, Block 1 (002000-003FFFh) not protected from table reads executed in other
      +                           blocks
  2526                           ;	Table Read Protection bit
  2527                           ;	EBTR2 = OFF, Block 2 (004000-005FFFh) not protected from table reads executed in other
      +                           blocks
  2528                           ;	Table Read Protection bit
  2529                           ;	EBTR3 = OFF, Block 3 (006000-007FFFh) not protected from table reads executed in other
      +                           blocks
  2530   30000C                     	org	3145740
  2531   30000C  0F                 	db	15
  2532                           
  2533                           ;Config register CONFIG7H @ 0x30000D
  2534                           ;	Boot Block Table Read Protection bit
  2535                           ;	EBTRB = OFF, Boot block (000000-0007FFh) not protected from table reads executed in ot
      +                          her blocks
  2536   30000D                     	org	3145741
  2537   30000D  40                 	db	64
  2538                           tosu	equ	0xFFF
  2539                           tosh	equ	0xFFE
  2540                           tosl	equ	0xFFD
  2541                           stkptr	equ	0xFFC
  2542                           pclatu	equ	0xFFB
  2543                           pclath	equ	0xFFA
  2544                           pcl	equ	0xFF9
  2545                           tblptru	equ	0xFF8
  2546                           tblptrh	equ	0xFF7
  2547                           tblptrl	equ	0xFF6
  2548                           tablat	equ	0xFF5
  2549                           prodh	equ	0xFF4
  2550                           prodl	equ	0xFF3
  2551                           indf0	equ	0xFEF
  2552                           postinc0	equ	0xFEE
  2553                           postdec0	equ	0xFED
  2554                           preinc0	equ	0xFEC
  2555                           plusw0	equ	0xFEB
  2556                           fsr0h	equ	0xFEA
  2557                           fsr0l	equ	0xFE9
  2558                           wreg	equ	0xFE8
  2559                           indf1	equ	0xFE7
  2560                           postinc1	equ	0xFE6
  2561                           postdec1	equ	0xFE5
  2562                           preinc1	equ	0xFE4
  2563                           plusw1	equ	0xFE3
  2564                           fsr1h	equ	0xFE2
  2565                           fsr1l	equ	0xFE1
  2566                           bsr	equ	0xFE0
  2567                           indf2	equ	0xFDF
  2568                           postinc2	equ	0xFDE
  2569                           postdec2	equ	0xFDD
  2570                           preinc2	equ	0xFDC
  2571                           plusw2	equ	0xFDB
  2572                           fsr2h	equ	0xFDA
  2573                           fsr2l	equ	0xFD9
  2574                           status	equ	0xFD8

Data Sizes:
    Strings     84
    Constant    0
    Data        0
    BSS         1
    Persistent  0
    Stack       0

Auto Spaces:
    Space          Size  Autos    Used
    COMRAM          127      9      10
    BANK0           128      0       0
    BANK1           256      0       0
    BANK2           256      0       0
    BANK3           256      0       0
    BANK4           256      0       0
    BANK5           256      0       0

Pointer List with Targets:

    Lcd_Out@buffer	PTR const unsigned char  size(1) Largest target is 17
		 -> STR_1(CODE[17]), STR_10(CODE[2]), STR_11(CODE[2]), STR_12(CODE[2]), 
		 -> STR_13(CODE[2]), STR_14(CODE[2]), STR_15(CODE[2]), STR_16(CODE[2]), 
		 -> STR_17(CODE[2]), STR_18(CODE[2]), STR_19(CODE[2]), STR_2(CODE[17]), 
		 -> STR_20(CODE[2]), STR_3(CODE[16]), STR_4(CODE[2]), STR_5(CODE[2]), 
		 -> STR_6(CODE[2]), STR_7(CODE[2]), STR_8(CODE[2]), STR_9(CODE[2]), 


Critical Paths under _main in COMRAM

    _main->_Lcd_Out
    _Lcd_Out->_Lcd_Chr_CP
    _Lcd_Out->_Lcd_Cmd
    _Lcd_Init->_Lcd_Cmd

Critical Paths under _main in BANK0

    None.

Critical Paths under _main in BANK1

    None.

Critical Paths under _main in BANK2

    None.

Critical Paths under _main in BANK3

    None.

Critical Paths under _main in BANK4

    None.

Critical Paths under _main in BANK5

    None.

Call Graph Tables:

 ---------------------------------------------------------------------------------
 (Depth) Function   	        Calls       Base Space   Used Autos Params    Refs
 ---------------------------------------------------------------------------------
 (0) _main                                                 2     2      0    3806
                                              7 COMRAM     2     2      0
                            _Lcd_Cmd
                           _Lcd_Init
                            _Lcd_Out
                           _tc_tecla
 ---------------------------------------------------------------------------------
 (1) _tc_tecla                                             2     2      0      15
                                              0 COMRAM     2     2      0
 ---------------------------------------------------------------------------------
 (1) _Lcd_Out                                              4     2      2    3461
                                              3 COMRAM     4     2      2
                         _Lcd_Chr_CP
                            _Lcd_Cmd
 ---------------------------------------------------------------------------------
 (2) _Lcd_Chr_CP                                           3     3      0     120
                                              0 COMRAM     3     3      0
 ---------------------------------------------------------------------------------
 (1) _Lcd_Init                                             2     2      0     210
                                              3 COMRAM     2     2      0
                            _Lcd_Cmd
 ---------------------------------------------------------------------------------
 (2) _Lcd_Cmd                                              3     3      0     120
                                              0 COMRAM     3     3      0
 ---------------------------------------------------------------------------------
 Estimated maximum stack depth 2
 ---------------------------------------------------------------------------------

 Call Graph Graphs:

 _main (ROOT)
   _Lcd_Cmd
   _Lcd_Init
     _Lcd_Cmd
   _Lcd_Out
     _Lcd_Chr_CP
     _Lcd_Cmd
   _tc_tecla

 Address spaces:
Name               Size   Autos  Total    Cost      Usage
BIGRAM             5FF      0       0      22        0.0%
EEDATA             100      0       0       0        0.0%
BITBANK5           100      0       0      14        0.0%
BANK5              100      0       0      15        0.0%
BITBANK4           100      0       0      12        0.0%
BANK4              100      0       0      13        0.0%
BITBANK3           100      0       0      10        0.0%
BANK3              100      0       0      11        0.0%
BITBANK2           100      0       0       8        0.0%
BANK2              100      0       0       9        0.0%
BITBANK1           100      0       0       6        0.0%
BANK1              100      0       0       7        0.0%
BITBANK0            80      0       0       4        0.0%
BANK0               80      0       0       5        0.0%
BITCOMRAM           7F      0       0       0        0.0%
COMRAM              7F      9       A       1        7.9%
BITBIGSFRhhl        2D      0       0      17        0.0%
BITBIGSFRhlh        2A      0       0      18        0.0%
BITBIGSFRhhh         D      0       0      16        0.0%
BITBIGSFRlh          4      0       0      20        0.0%
BITBIGSFRhll         4      0       0      19        0.0%
BIGSFR               0      0       0     200        0.0%
BITSFR               0      0       0     200        0.0%
SFR                  0      0       0     200        0.0%
STACK                0      0       0       2        0.0%
NULL                 0      0       0       0        0.0%
ABS                  0      0       A      21        0.0%
DATA                 0      0       A       3        0.0%
CODE                 0      0       0       0        0.0%


Microchip Technology PIC18 Macro Assembler V2.46 build 20240104201356 
Symbol Table                                                                                   Tue Aug 06 17:45:05 2024

                      l9 0B2C                       l20 0BF4                       l12 0B5E  
                     l31 0CBC                       l23 0C26                       l15 0B90  
                     l42 0D84                       l34 0CEE                       l26 0C58  
                     l53 0E28                       l45 0DB6                       l37 0D20  
                     l48 0DE8                       u15 0F6C                       u25 0F86  
                     u35 0FAC                       u45 0E38                       u70 0B08  
                     u55 0E52                       u71 0B04                       u80 0B24  
                     u65 0E78                       u81 0B20                       u90 0B3A  
                     u91 0B36                      l112 0728                      l150 114A  
                    l151 119C                      l180 0F5C                      l164 122A  
                    l149 10FE                      l183 1088                      l931 0F60  
                    l941 0FF4                      l933 0F64                      l951 107A  
                    l943 1066                      l935 0FE2                      l945 106E  
                    l937 0FEA                      l961 0EB8                      l953 0E2C  
                    l947 1070                      l939 0FEC                      l971 0F44  
                    l963 0EC0                      l955 0E30                      l949 1078  
                    l973 0F46                      l965 0F32                      l957 0EAE  
                    l981 0B16                      l975 0F4E                      l967 0F3A  
                    l959 0EB6                      l991 0B6C                      l983 0B24  
                    l969 0F3C                      l993 0B7A                      l985 0B3A  
                    l977 0AF0                      l995 0B88                      l987 0B48  
                    l979 0B08                      l997 0B9E                      l989 0B56  
                    l999 0BAC                      u100 0B56                      u101 0B52  
                    u110 0B6C                      u111 0B68                      u200 0C50  
                    u120 0B88                      u201 0C4C                      u121 0B84  
                    u210 0C66                      u130 0B9E                      u211 0C62  
                    u131 0B9A                      u300 0D4A                      u220 0C82  
                    u140 0BBA                      u301 0D46                      u221 0C7E  
                    u141 0BB6                      u310 0D60                      u230 0C98  
                    u150 0BD0                      u311 0D5C                      u231 0C94  
                    u151 0BCC                      u320 0D7C                      u240 0CB4  
                    u160 0BEC                      u321 0D78                      u241 0CB0  
                    u161 0BE8                      u330 0D92                      u250 0CCA  
                    u170 0C02                      u331 0D8E                      u251 0CC6  
                    u171 0BFE                      u340 0DAE                      u260 0CE6  
                    u180 0C1E                      u341 0DAA                      u261 0CE2  
                    u181 0C1A                      u350 0DC4                      u270 0CFC  
                    u190 0C34                      u351 0DC0                      u271 0CF8  
                    u191 0C30                      u360 0DE0                      u280 0D18  
                    u600 0742                      u361 0DDC                      u281 0D14  
                    u601 073E                      u370 0DF6                      u290 0D2E  
                    u610 077A                      u371 0DF2                      u291 0D2A  
                    u611 0776                      u380 0E12                      u700 0972  
                    u620 07B2                      u381 0E0E                      u701 096E  
                    u621 07AE                      u390 114A                      u710 09AA  
                    u630 07EA                      u391 1146                      u711 09A6  
                    u631 07E6                      u720 09E2                      u640 0822  
                    u721 09DE                      u641 081E                      u730 0A1A  
                    u650 085A                      u731 0A16                      u651 0856  
                    u740 0A52                      u660 0892                      u741 0A4E  
                    u661 088E                      u590 122A                      u750 0A8A  
                    u670 08CA                      u591 1226                      u751 0A86  
                    u671 08C6                      u807 075A                      u760 0AC2  
                    u680 0902                      u761 0ABE                      u681 08FE  
                    u817 0792                      u690 093A                      u907 098A  
                    u691 0936                      u827 07CA                      u917 09C2  
                    u837 0802                      u927 09FA                      u847 083A  
                    u937 0A32                      u857 0872                      u777 06B6  
                    u947 0A6A                      u867 08AA                      u787 06F0  
                    u957 0AA2                      u877 08E2                      u797 070C  
                    u967 0ADA                      u887 091A                      u977 0B0E  
                    u897 0952                      u987 0B40                      u997 0B72  
                    wreg 0FE8                     l1001 0BBA                     l1011 0BDE  
                   l1003 0BBE                     l1101 108A                     l1021 0C34  
                   l1013 0BEC                     l1005 0BC0                     l1111 1116  
                   l1103 10A6                     l1031 0C82                     l1023 0C42  
                   l1015 0C02                     l1007 0BC2                     l1121 1126  
                   l1113 111E                     l1105 10FA                     l1041 0CA6  
                   l1025 0C50                     l1017 0C10                     l1033 0C86  
                   l1009 0BD0                     l1131 116C                     l1123 1128  
                   l1115 1120                     l1051 0CFC                     l1043 0CB4  
                   l1035 0C88                     l1027 0C66                     l1019 0C1E  
                   l1141 1184                     l1133 116E                     l1125 1138  
                   l1117 1122                     l1061 0D4A                     l1053 0D0A  
                   l1045 0CCA                     l1037 0C8A                     l1029 0C74  
                   l1151 1190                     l1143 1184                     l1135 1170  
                   l1127 1162                     l1119 1124                     l1071 0D6E  
                   l1055 0D18                     l1047 0CD8                     l1063 0D4E  
                   l1039 0C98                     l1153 1196                     l1145 118A  
                   l1137 1172                     l1129 116A                     l1081 0DC4  
                   l1073 0D7C                     l1065 0D50                     l1057 0D2E  
                   l1049 0CE6                     l1401 0830                     l1155 1196  
                   l1147 118A                     l1139 1174                     l1331 11AE  
                   l1091 0E12                     l1083 0DD2                     l1075 0D92  
                   l1067 0D52                     l1059 0D3C                     l1411 0892  
                   l1403 0848                     l1149 1190                     l1333 11B8  
                   l1341 11F2                     l1085 0DE0                     l1077 0DA0  
                   l1093 0E16                     l1069 0D60                     l1421 08F0  
                   l1413 08A0                     l1405 085A                     l1343 11FC  
                   l1335 11C2                     l1327 11A0                     l1095 0E18  
                   l1087 0DF6                     l1079 0DAE                     l1431 0948  
                   l1423 0902                     l1415 08B8                     l1407 0868  
                   l1351 0666                     l1345 120C                     l1329 11A4  
                   l1097 0E26                     l1089 0E04                     l1441 09AA  
                   l1433 0960                     l1425 0910                     l1417 08CA  
                   l1409 0880                     l1361 06D8                     l1353 06A8  
                   l1347 120E                     l1339 11CC                     l1451 0A08  
                   l1443 09B8                     l1435 0972                     l1427 0928  
                   l1419 08D8                     l1371 072A                     l1363 06E6  
                   l1355 06AC                     l1461 0A60                     l1453 0A1A  
                   l1445 09D0                     l1437 0980                     l1429 093A  
                   l1381 077A                     l1373 0730                     l1365 06FC  
                   l1357 06C4                     l1349 0656                     l1471 0AC2  
                   l1463 0A78                     l1455 0A28                     l1447 09E2  
                   l1439 0998                     l1391 07D8                     l1383 0788  
                   l1375 0742                     l1367 0702                     l1359 06CA  
                   l1473 0AD0                     l1465 0A8A                     l1457 0A40  
                   l1449 09F0                     l1393 07EA                     l1385 07A0  
                   l1377 0750                     l1369 071A                     l1467 0A98  
                   l1459 0A52                     l1395 07F8                     l1387 07B2  
                   l1379 0768                     l1469 0AB0                     l1397 0810  
                   l1389 07C0                     l1399 0822                     STR_1 0601  
                   STR_2 0612                     STR_3 0623                     STR_4 0637  
                   STR_5 0639                     STR_6 063B                     STR_7 063D  
                   STR_8 063F                     STR_9 0641                     u1007 0BA4  
                   u1017 0BD6                     u1107 0D98                     u1027 0C08  
                   u1117 0DCA                     u1037 0C3A                     u1207 10AC  
                   u1127 0DFC                     u1047 0C6C                     u1217 10BA  
                   u1137 0E1E                     u1057 0C9E                     u1307 0FE4  
                   u1227 10C8                     u1147 0EB0                     u1067 0CD0  
                   u1317 0FEE                     u1237 10D6                     u1157 0EBA  
                   u1077 0D02                     _LATA 0F89                     _LATB 0F8A  
                   u1327 1068                     u1247 10E4                     u1167 0F34  
                   u1087 0D34                     _LATC 0F8B                     _LATD 0F8C  
                   u1337 1072                     u1257 10F2                     u1177 0F3E  
                   u1097 0D66                     _LATE 0F8D                     u1347 1080  
                   u1267 1118                     u1187 0F48                     u1277 1130  
                   u1197 0F54                     u1287 1164                     u1297 117C  
                   _main 0656                     start 0000          __end_of_Lcd_Cmd 108A  
        __end_of_Lcd_Out 122C             ___param_bank 0000               _Lcd_Chr_CP 0E2A  
                  ?_main 0001                    STR_10 0643                    STR_11 0645  
                  STR_20 0651                    STR_12 0647                    STR_13 0635  
                  STR_14 0653                    STR_15 0633                    STR_16 0649  
                  STR_17 064B                    STR_18 064D                    STR_19 064F  
                  _PORTA 0F80                    _PORTB 0F81                    _PORTC 0F82  
                  _PORTD 0F83                    _PORTE 0F84                    _TRISA 0F92  
                  _TRISB 0F93                    _TRISC 0F94                    _TRISD 0F95  
                  _TRISE 0F96                    _tecla 000A                    tablat 0FF5  
                  status 0FD8         __end_of_Lcd_Init 119E          __initialization 122C  
           __end_of_main 0AF0                   ??_main 0008            __activetblptr 0002  
                 _ADCON0 0FC2                   _ADCON1 0FC1                   _INTCON 0FF2  
              ??_Lcd_Cmd 0001                ??_Lcd_Out 0006              ?_Lcd_Chr_CP 0001  
                 isa$std 0001         __end_of_tc_tecla 0E2A             __mediumconst 0000  
                 tblptrh 0FF7                   tblptrl 0FF6                   tblptru 0FF8  
             __accesstop 0080  __end_of__initialization 122E            ___rparam_used 0001  
         __pcstackCOMRAM 0001                ?_Lcd_Init 0001              tc_tecla@key 0002  
                _INTCON2 0FF1                  _INTCON3 0FF0               ??_Lcd_Init 0004  
                _Lcd_Cmd 0F5E                  _Lcd_Out 119E                ?_tc_tecla 0001  
                __Hparam 0000                  __Lparam 0000             __psmallconst 0600  
                __pcinit 122C                  __ramtop 0600                  __ptext0 0656  
                __ptext1 0AF0                  __ptext2 119E                  __ptext3 0E2A  
                __ptext4 108A                  __ptext5 0F5E     end_of_initialization 122E  
          __Lmediumconst 0000               ??_tc_tecla 0001             ??_Lcd_Chr_CP 0001  
              _PORTBbits 0F81                _PORTDbits 0F83                _PORTEbits 0F84  
              _TRISDbits 0F95                _TRISEbits 0F96       __end_of_Lcd_Chr_CP 0F5E  
    start_initialization 122C            Lcd_Out@buffer 0005              __pbssCOMRAM 000A  
               ?_Lcd_Cmd 0001                 ?_Lcd_Out 0004              __smallconst 0600  
               _LATBbits 0F8A                 Lcd_Out@x 0004                 Lcd_Out@y 0006  
           Lcd_Init@data 0005                 _Lcd_Init 108A              _INTCON2bits 0FF1  
               __Hrparam 0000                 __Lrparam 0000           Lcd_Chr_CP@data 0003  
            Lcd_Cmd@data 0003                 _tc_tecla 0AF0                 isa$xinst 0000  
            Lcd_Out@data 0007  
